

Microchip MPLAB XC8 Assembler V2.41 build 20230208172133 
                                                                                               Fri Oct 13 22:06:57 2023

Microchip MPLAB XC8 C Compiler v2.41 (Free license) build 20230208172133 Og1 
     1                           	processor	18F4620
     2                           	fnconf	rparam,??,?,0
     3                           	pagewidth 120
     4                           	opt	flic
     5                           	psect	idataBANK0,global,class=CODE,delta=1,noexec
     6                           	psect	smallconst,global,reloc=2,class=SMALLCONST,delta=1,noexec
     7                           	psect	cinit,global,reloc=2,class=CODE,delta=1
     8                           	psect	bssCOMRAM,global,class=COMRAM,space=1,delta=1,lowdata,noexec
     9                           	psect	bssBANK0,global,class=BANK0,space=1,delta=1,lowdata,noexec
    10                           	psect	dataBANK0,global,class=BANK0,space=1,delta=1,lowdata,noexec
    11                           	psect	bssBANK1,global,class=BANK1,space=1,delta=1,lowdata,noexec
    12                           	psect	cstackBANK0,global,class=BANK0,space=1,delta=1,lowdata,noexec
    13                           	psect	cstackCOMRAM,global,class=COMRAM,space=1,delta=1,lowdata,noexec
    14                           	psect	text0,global,reloc=2,class=CODE,delta=1
    15                           	psect	text1,global,reloc=2,class=CODE,delta=1
    16                           	psect	text2,global,reloc=2,class=CODE,delta=1
    17                           	psect	text3,global,reloc=2,class=CODE,delta=1
    18                           	psect	text4,global,reloc=2,class=CODE,delta=1
    19                           	psect	text5,global,reloc=2,class=CODE,delta=1
    20                           	psect	text6,global,reloc=2,class=CODE,delta=1,group=3
    21                           	psect	text7,global,reloc=2,class=CODE,delta=1,group=1
    22                           	psect	text8,global,reloc=2,class=CODE,delta=1,group=1
    23                           	psect	text9,global,reloc=2,class=CODE,delta=1,group=1
    24                           	psect	text10,global,reloc=2,class=CODE,delta=1,group=1
    25                           	psect	text11,global,reloc=2,class=CODE,delta=1,group=3
    26                           	psect	text12,global,reloc=2,class=CODE,delta=1,group=3
    27                           	psect	text13,global,reloc=2,class=CODE,delta=1,group=3
    28                           	psect	text14,global,reloc=2,class=CODE,delta=1,group=3
    29                           	psect	text15,global,reloc=2,class=CODE,delta=1,group=2
    30                           	psect	text16,global,reloc=2,class=CODE,delta=1,group=2
    31                           	psect	text17,global,reloc=2,class=CODE,delta=1,group=3
    32                           	psect	text18,global,reloc=2,class=CODE,delta=1
    33                           	psect	text19,global,reloc=2,class=CODE,delta=1
    34                           	psect	text20,global,reloc=2,class=CODE,delta=1
    35                           	psect	text21,global,reloc=2,class=CODE,delta=1
    36                           	psect	text22,global,reloc=2,class=CODE,delta=1
    37                           	psect	text23,global,reloc=2,class=CODE,delta=1
    38                           	psect	text24,global,reloc=2,class=CODE,delta=1
    39                           	psect	text25,global,reloc=2,class=CODE,delta=1
    40                           	psect	text26,global,reloc=2,class=CODE,delta=1
    41                           	psect	text27,global,reloc=2,class=CODE,delta=1
    42                           	psect	text28,global,reloc=2,class=CODE,delta=1
    43                           	psect	text29,global,reloc=2,class=CODE,delta=1
    44                           	psect	text30,global,reloc=2,class=CODE,delta=1
    45                           	psect	text31,global,reloc=2,class=CODE,delta=1
    46                           	psect	text32,global,reloc=2,class=CODE,delta=1
    47                           	psect	text33,global,reloc=2,class=CODE,delta=1
    48                           	psect	text34,global,reloc=2,class=CODE,delta=1
    49                           	psect	text35,global,reloc=2,class=CODE,delta=1
    50                           	psect	text36,global,reloc=2,class=CODE,delta=1
    51                           	psect	text37,global,reloc=2,class=CODE,delta=1,group=2
    52                           	psect	text38,global,reloc=2,class=CODE,delta=1,group=2
    53                           	psect	text39,global,reloc=2,class=CODE,delta=1,group=2
    54                           	psect	text40,global,reloc=2,class=CODE,delta=1,group=2
    55                           	psect	text41,global,reloc=2,class=CODE,delta=1,group=2
    56                           	psect	text42,global,reloc=2,class=CODE,delta=1
    57                           	psect	text43,global,reloc=2,class=CODE,delta=1
    58                           	psect	text44,global,reloc=2,class=CODE,delta=1
    59                           	psect	intcode,global,reloc=2,class=CODE,delta=1
    60                           	psect	intcode_body,global,reloc=2,class=CODE,delta=1
    61                           	psect	text46,global,reloc=2,class=CODE,delta=1
    62                           	psect	text47,global,reloc=2,class=CODE,delta=1
    63                           	psect	text48,global,reloc=2,class=CODE,delta=1
    64                           	psect	intsave_regs,global,class=BIGRAM,space=1,delta=1,noexec
    65                           	psect	text49,global,reloc=2,class=CODE,delta=1
    66                           	psect	rparam,global,class=COMRAM,space=1,delta=1,noexec
    67                           	psect	temp,global,ovrld,common,class=COMRAM,space=1,delta=1
    68                           	psect	config,global,abs,ovrld,class=CONFIG,space=4,delta=1,noexec
    69   000000                     
    70                           ; Generated 23/03/2023 GMT
    71                           ; 
    72                           ; Copyright © 2023, Microchip Technology Inc. and its subsidiaries ("Microchip")
    73                           ; All rights reserved.
    74                           ; 
    75                           ; This software is developed by Microchip Technology Inc. and its subsidiaries ("Microch
      +                          ip").
    76                           ; 
    77                           ; Redistribution and use in source and binary forms, with or without modification, are
    78                           ; permitted provided that the following conditions are met:
    79                           ; 
    80                           ;     1. Redistributions of source code must retain the above copyright notice, this lis
      +                          t of
    81                           ;        conditions and the following disclaimer.
    82                           ; 
    83                           ;     2. Redistributions in binary form must reproduce the above copyright notice, this 
      +                          list
    84                           ;        of conditions and the following disclaimer in the documentation and/or other
    85                           ;        materials provided with the distribution. Publication is not required when
    86                           ;        this file is used in an embedded application.
    87                           ; 
    88                           ;     3. Microchip's name may not be used to endorse or promote products derived from th
      +                          is
    89                           ;        software without specific prior written permission.
    90                           ; 
    91                           ; THIS SOFTWARE IS PROVIDED BY MICROCHIP "AS IS" AND ANY EXPRESS OR IMPLIED WARRANTIES,
    92                           ; INCLUDING, BUT NOT LIMITED TO, THE IMPLIED WARRANTIES OF MERCHANTABILITY AND FITNESS F
      +                          OR
    93                           ; PURPOSE ARE DISCLAIMED.  IN NO EVENT SHALL MICROCHIP BE LIABLE FOR ANY DIRECT, INDIREC
      +                          T,
    94                           ; INCIDENTAL, SPECIAL, EXEMPLARY, OR CONSEQUENTIAL DAMAGES (INCLUDING BUT NOT LIMITED TO
    95                           ; PROCUREMENT OF SUBSTITUTE GOODS OR SERVICES; LOSS OF USE, DATA OR PROFITS; OR BUSINESS
    96                           ; INTERRUPTION) HOWSOEVER CAUSED AND ON ANY THEORY OF LIABILITY, WHETHER IN CONTRACT, ST
      +                          RICT
    97                           ; LIABILITY, OR TORT (INCLUDING NEGLIGENCE OR OTHERWISE) ARISING IN ANY WAY OUT OF THE U
      +                          SE OF
    98                           ; THIS SOFTWARE, EVEN IF ADVISED OF THE POSSIBILITY OF SUCH DAMAGE.
    99                           ; 
   100                           ; 
   101                           ; Code-generator required, PIC18F4620 Definitions
   102                           ; 
   103                           ; SFR Addresses
   104   000000                     
   105                           	psect	idataBANK0
   106   003B32                     __pidataBANK0:
   107                           	callstack 0
   108                           
   109                           ;initializer for _port_reg
   110   003B32  80                 	db	128
   111   003B33  0F                 	db	15
   112   003B34  81                 	db	129
   113   003B35  0F                 	db	15
   114   003B36  82                 	db	130
   115   003B37  0F                 	db	15
   116   003B38  83                 	db	131
   117   003B39  0F                 	db	15
   118   003B3A  84                 	db	132
   119   003B3B  0F                 	db	15
   120                           
   121                           ;initializer for _lat_reg
   122   003B3C  89                 	db	137
   123   003B3D  0F                 	db	15
   124   003B3E  8A                 	db	138
   125   003B3F  0F                 	db	15
   126   003B40  8B                 	db	139
   127   003B41  0F                 	db	15
   128   003B42  8C                 	db	140
   129   003B43  0F                 	db	15
   130   003B44  8D                 	db	141
   131   003B45  0F                 	db	15
   132                           
   133                           ;initializer for _tris_reg
   134   003B46  92                 	db	146
   135   003B47  0F                 	db	15
   136   003B48  93                 	db	147
   137   003B49  0F                 	db	15
   138   003B4A  94                 	db	148
   139   003B4B  0F                 	db	15
   140   003B4C  95                 	db	149
   141   003B4D  0F                 	db	15
   142   003B4E  96                 	db	150
   143   003B4F  0F                 	db	15
   144                           
   145                           ;initializer for _ccp_pwm_obj
   146   003B50  00                 	db	0
   147   003B51  00                 	db	0
   148   003B52  00                 	db	0
   149   003B53  00                 	db	0
   150   003B54  00                 	db	0
   151   003B55  00                 	db	0
   152   003B56  2710               	dw	10000
   153   003B58  01                 	db	1
   154   003B59  01                 	db	1
   155   003B5A  02                 	db	2
   156   003B5B  00                 	db	0
   157   003B5C  12                 	db	18
   158                           
   159                           ;initializer for _adc_0
   160   003B5D  C4                 	db	low _adc_interrupt
   161   003B5E  3C                 	db	high _adc_interrupt
   162   003B5F  40                 	db	64
   163   003B60  00                 	db	0
   164   003B61  05                 	db	5
   165   003B62  05                 	db	5
   166   003B63  00                 	db	0
   167   003B64  01                 	db	1
   168                           
   169                           ;initializer for _lcd_4bit
   170   003B65  13                 	db	19
   171   003B66  23                 	db	35
   172   003B67  2B                 	db	43
   173   003B68  33                 	db	51
   174   003B69  3B                 	db	59
   175   003B6A  1B                 	db	27
   176                           
   177                           ;initializer for _motor
   178   003B6B  02                 	db	2
   179   003B6C  0A                 	db	10
   180   000000                     _ADRESL	set	4035
   181   000000                     _ADRESH	set	4036
   182   000000                     _INTCONbits	set	4082
   183   000000                     _ADCON1bits	set	4033
   184   000000                     _PIE1bits	set	3997
   185   000000                     _PIR1bits	set	3998
   186   000000                     _ADCON2bits	set	4032
   187   000000                     _ADCON0bits	set	4034
   188   000000                     _PORTE	set	3972
   189   000000                     _PORTD	set	3971
   190   000000                     _PORTC	set	3970
   191   000000                     _PORTB	set	3969
   192   000000                     _PORTA	set	3968
   193   000000                     _LATA	set	3977
   194   000000                     _TRISA	set	3986
   195   000000                     _PIE2bits	set	4000
   196   000000                     _CCP2CONbits	set	4026
   197   000000                     _CCP1CONbits	set	4029
   198   000000                     _T2CONbits	set	4042
   199   000000                     _CCPR1L	set	4030
   200   000000                     _CCPR2L	set	4027
   201   000000                     _TMR2	set	4044
   202   000000                     _PR2	set	4043
   203   000000                     _PIR2bits	set	4001
   204   000000                     _TRISE	set	3990
   205   000000                     _TRISD	set	3989
   206   000000                     _TRISC	set	3988
   207   000000                     _TRISB	set	3987
   208   000000                     _LATE	set	3981
   209   000000                     _LATD	set	3980
   210   000000                     _LATC	set	3979
   211   000000                     _LATB	set	3978
   212                           
   213                           	psect	smallconst
   214   001000                     __psmallconst:
   215                           	callstack 0
   216   001000  00                 	db	0
   217   001001                     STR_4:
   218   001001  54                 	db	84	;'T'
   219   001002  65                 	db	101	;'e'
   220   001003  6D                 	db	109	;'m'
   221   001004  70                 	db	112	;'p'
   222   001005  65                 	db	101	;'e'
   223   001006  72                 	db	114	;'r'
   224   001007  61                 	db	97	;'a'
   225   001008  74                 	db	116	;'t'
   226   001009  75                 	db	117	;'u'
   227   00100A  72                 	db	114	;'r'
   228   00100B  65                 	db	101	;'e'
   229   00100C  20                 	db	32
   230   00100D  3D                 	db	61	;'='
   231   00100E  20                 	db	32
   232   00100F  00                 	db	0
   233   001010                     STR_12:
   234   001010  37                 	db	55	;'7'
   235   001011  35                 	db	53	;'5'
   236   001012  25                 	db	37
   237   001013  20                 	db	32
   238   001014  43                 	db	67	;'C'
   239   001015  61                 	db	97	;'a'
   240   001016  70                 	db	112	;'p'
   241   001017  61                 	db	97	;'a'
   242   001018  63                 	db	99	;'c'
   243   001019  69                 	db	105	;'i'
   244   00101A  74                 	db	116	;'t'
   245   00101B  79                 	db	121	;'y'
   246   00101C  20                 	db	32
   247   00101D  00                 	db	0
   248   00101E                     STR_14:
   249   00101E  46                 	db	70	;'F'
   250   00101F  75                 	db	117	;'u'
   251   001020  6C                 	db	108	;'l'
   252   001021  6C                 	db	108	;'l'
   253   001022  20                 	db	32
   254   001023  43                 	db	67	;'C'
   255   001024  61                 	db	97	;'a'
   256   001025  70                 	db	112	;'p'
   257   001026  61                 	db	97	;'a'
   258   001027  63                 	db	99	;'c'
   259   001028  69                 	db	105	;'i'
   260   001029  74                 	db	116	;'t'
   261   00102A  79                 	db	121	;'y'
   262   00102B  00                 	db	0
   263   00102C                     STR_6:
   264   00102C  20                 	db	32
   265   00102D  20                 	db	32
   266   00102E  20                 	db	32
   267   00102F  20                 	db	32
   268   001030  20                 	db	32
   269   001031  20                 	db	32
   270   001032  20                 	db	32
   271   001033  20                 	db	32
   272   001034  20                 	db	32
   273   001035  20                 	db	32
   274   001036  20                 	db	32
   275   001037  20                 	db	32
   276   001038  00                 	db	0
   277   001039                     STR_7:
   278   001039  4D                 	db	77	;'M'
   279   00103A  6F                 	db	111	;'o'
   280   00103B  74                 	db	116	;'t'
   281   00103C  6F                 	db	111	;'o'
   282   00103D  72                 	db	114	;'r'
   283   00103E  20                 	db	32
   284   00103F  49                 	db	73	;'I'
   285   001040  73                 	db	115	;'s'
   286   001041  20                 	db	32
   287   001042  4F                 	db	79	;'O'
   288   001043  6E                 	db	110	;'n'
   289   001044  20                 	db	32
   290   001045  00                 	db	0
   291   001046                     STR_5:
   292   001046  4D                 	db	77	;'M'
   293   001047  6F                 	db	111	;'o'
   294   001048  74                 	db	116	;'t'
   295   001049  6F                 	db	111	;'o'
   296   00104A  72                 	db	114	;'r'
   297   00104B  20                 	db	32
   298   00104C  49                 	db	73	;'I'
   299   00104D  73                 	db	115	;'s'
   300   00104E  20                 	db	32
   301   00104F  4F                 	db	79	;'O'
   302   001050  66                 	db	102	;'f'
   303   001051  66                 	db	102	;'f'
   304   001052  00                 	db	0
   305   001053                     STR_10:
   306   001053  35                 	db	53	;'5'
   307   001054  30                 	db	48	;'0'
   308   001055  25                 	db	37
   309   001056  20                 	db	32
   310   001057  43                 	db	67	;'C'
   311   001058  61                 	db	97	;'a'
   312   001059  70                 	db	112	;'p'
   313   00105A  61                 	db	97	;'a'
   314   00105B  63                 	db	99	;'c'
   315   00105C  69                 	db	105	;'i'
   316   00105D  74                 	db	116	;'t'
   317   00105E  79                 	db	121	;'y'
   318   00105F  00                 	db	0
   319   001060                     STR_8:
   320   001060  32                 	db	50	;'2'
   321   001061  35                 	db	53	;'5'
   322   001062  25                 	db	37
   323   001063  20                 	db	32
   324   001064  43                 	db	67	;'C'
   325   001065  61                 	db	97	;'a'
   326   001066  70                 	db	112	;'p'
   327   001067  61                 	db	97	;'a'
   328   001068  63                 	db	99	;'c'
   329   001069  69                 	db	105	;'i'
   330   00106A  74                 	db	116	;'t'
   331   00106B  79                 	db	121	;'y'
   332   00106C  00                 	db	0
   333   00106D                     STR_1:
   334   00106D  25                 	db	37
   335   00106E  69                 	db	105	;'i'
   336   00106F  00                 	db	0
   337   001070  00                 	db	0	; dummy byte at the end
   338   000000                     
   339                           ; #config settings
   340                           
   341                           	psect	cinit
   342   003878                     __pcinit:
   343                           	callstack 0
   344   003878                     start_initialization:
   345                           	callstack 0
   346   003878                     __initialization:
   347                           	callstack 0
   348                           
   349                           ; Initialize objects allocated to BANK0 (59 bytes)
   350                           ; load TBLPTR registers with __pidataBANK0
   351   003878  0E32               	movlw	low __pidataBANK0
   352   00387A  6EF6               	movwf	tblptrl,c
   353   00387C  0E3B               	movlw	high __pidataBANK0
   354   00387E  6EF7               	movwf	tblptrh,c
   355   003880  0E00               	movlw	low (__pidataBANK0 shr (0+16))
   356   003882  6EF8               	movwf	tblptru,c
   357   003884  EE00  F080         	lfsr	0,__pdataBANK0
   358   003888  EE10 F03B          	lfsr	1,59
   359   00388C                     copy_data0:
   360   00388C  0009               	tblrd		*+
   361   00388E  CFF5 FFEE          	movff	tablat,postinc0
   362   003892  50E5               	movf	postdec1,w,c
   363   003894  50E1               	movf	fsr1l,w,c
   364   003896  E1FA               	bnz	copy_data0
   365                           
   366                           ; Clear objects allocated to BANK1 (32 bytes)
   367   003898  EE01  F000         	lfsr	0,__pbssBANK1
   368   00389C  0E20               	movlw	32
   369   00389E                     clear_0:
   370   00389E  6AEE               	clrf	postinc0,c
   371   0038A0  06E8               	decf	wreg,f,c
   372   0038A2  E1FD               	bnz	clear_0
   373                           
   374                           ; Clear objects allocated to BANK0 (39 bytes)
   375   0038A4  EE00  F0BB         	lfsr	0,__pbssBANK0
   376   0038A8  0E27               	movlw	39
   377   0038AA                     clear_1:
   378   0038AA  6AEE               	clrf	postinc0,c
   379   0038AC  06E8               	decf	wreg,f,c
   380   0038AE  E1FD               	bnz	clear_1
   381                           
   382                           ; Clear objects allocated to COMRAM (11 bytes)
   383   0038B0  EE00  F068         	lfsr	0,__pbssCOMRAM
   384   0038B4  0E0B               	movlw	11
   385   0038B6                     clear_2:
   386   0038B6  6AEE               	clrf	postinc0,c
   387   0038B8  06E8               	decf	wreg,f,c
   388   0038BA  E1FD               	bnz	clear_2
   389   0038BC                     end_of_initialization:
   390                           	callstack 0
   391   0038BC                     __end_of__initialization:
   392                           	callstack 0
   393   0038BC  9073               	bcf	int$flags,0,c	;clear compiler interrupt flag (level 1)
   394   0038BE  9273               	bcf	int$flags,1,c	;clear compiler interrupt flag (level 2)
   395   0038C0  0100               	movlb	0
   396   0038C2  EF7B  F00E         	goto	_main	;jump to C main() function
   397                           
   398                           	psect	bssCOMRAM
   399   000068                     __pbssCOMRAM:
   400                           	callstack 0
   401   000068                     _prec:
   402                           	callstack 0
   403   000068                     	ds	2
   404   00006A                     _lm35_res_celsius:
   405                           	callstack 0
   406   00006A                     	ds	2
   407   00006C                     _handler_cpp1:
   408                           	callstack 0
   409   00006C                     	ds	2
   410   00006E                     _hundler_ADC:
   411                           	callstack 0
   412   00006E                     	ds	2
   413   000070                     _flags:
   414                           	callstack 0
   415   000070                     	ds	1
   416   000071                     _lm35_res:
   417                           	callstack 0
   418   000071                     	ds	2
   419                           
   420                           	psect	bssBANK0
   421   0000BB                     __pbssBANK0:
   422                           	callstack 0
   423   0000BB                     	ds	11
   424   0000C6                     	ds	6
   425   0000CC                     	ds	4
   426   0000D0                     _width:
   427                           	callstack 0
   428   0000D0                     	ds	2
   429   0000D2                     _TIMER2_HUNDLER:
   430                           	callstack 0
   431   0000D2                     	ds	2
   432   0000D4                     _handler_cpp2:
   433                           	callstack 0
   434   0000D4                     	ds	2
   435   0000D6                     _timer2_obj:
   436                           	callstack 0
   437   0000D6                     	ds	6
   438   0000DC                     _arr_val:
   439                           	callstack 0
   440   0000DC                     	ds	6
   441                           
   442                           	psect	dataBANK0
   443   000080                     __pdataBANK0:
   444                           	callstack 0
   445   000080                     _port_reg:
   446                           	callstack 0
   447   000080                     	ds	10
   448   00008A                     _lat_reg:
   449                           	callstack 0
   450   00008A                     	ds	10
   451   000094                     _tris_reg:
   452                           	callstack 0
   453   000094                     	ds	10
   454   00009E                     _ccp_pwm_obj:
   455                           	callstack 0
   456   00009E                     	ds	13
   457   0000AB                     _adc_0:
   458                           	callstack 0
   459   0000AB                     	ds	8
   460   0000B3                     _lcd_4bit:
   461                           	callstack 0
   462   0000B3                     	ds	6
   463   0000B9                     _motor:
   464                           	callstack 0
   465   0000B9                     	ds	2
   466                           
   467                           	psect	bssBANK1
   468   000100                     __pbssBANK1:
   469                           	callstack 0
   470   000100                     _dbuf:
   471                           	callstack 0
   472   000100                     	ds	32
   473                           
   474                           	psect	cstackBANK0
   475   0000E2                     __pcstackBANK0:
   476                           	callstack 0
   477   0000E2                     set_pwm_period@ccp_obj:
   478                           	callstack 0
   479   0000E2                     CCP_PWM_Set_Duty@ccp_obj:
   480                           	callstack 0
   481                           
   482                           ; 2 bytes @ 0x0
   483   0000E2                     	ds	2
   484   0000E4                     ??_set_pwm_period:
   485   0000E4                     CCP_PWM_Set_Duty@duty:
   486                           	callstack 0
   487                           
   488                           ; 1 bytes @ 0x2
   489   0000E4                     	ds	1
   490   0000E5                     ??_CCP_PWM_Set_Duty:
   491                           
   492                           ; 1 bytes @ 0x3
   493   0000E5                     	ds	1
   494   0000E6                     _set_pwm_period$2625:
   495                           	callstack 0
   496                           
   497                           ; 4 bytes @ 0x4
   498   0000E6                     	ds	1
   499   0000E7                     CCP_PWM_Set_Duty@ret:
   500                           	callstack 0
   501                           
   502                           ; 1 bytes @ 0x5
   503   0000E7                     	ds	1
   504   0000E8                     _CCP_PWM_Set_Duty$2627:
   505                           	callstack 0
   506                           
   507                           ; 4 bytes @ 0x6
   508   0000E8                     	ds	2
   509   0000EA                     _set_pwm_period$2626:
   510                           	callstack 0
   511                           
   512                           ; 4 bytes @ 0x8
   513   0000EA                     	ds	2
   514   0000EC                     CCP_PWM_Set_Duty@val_reg:
   515                           	callstack 0
   516                           
   517                           ; 2 bytes @ 0xA
   518   0000EC                     	ds	2
   519   0000EE                     CCP_Init@ccp_obj:
   520                           	callstack 0
   521                           
   522                           ; 2 bytes @ 0xC
   523   0000EE                     	ds	2
   524                           
   525                           	psect	cstackCOMRAM
   526   000001                     __pcstackCOMRAM:
   527                           	callstack 0
   528   000001                     adc_getconversion_result@adc_confg:
   529                           	callstack 0
   530                           
   531                           ; 2 bytes @ 0x0
   532   000001                     	ds	2
   533   000003                     adc_getconversion_result@conversion_result:
   534                           	callstack 0
   535                           
   536                           ; 2 bytes @ 0x2
   537   000003                     	ds	2
   538   000005                     ??_adc_getconversion_result:
   539                           
   540                           ; 1 bytes @ 0x4
   541   000005                     	ds	3
   542   000008                     adc_getconversion_result@ret:
   543                           	callstack 0
   544                           
   545                           ; 1 bytes @ 0x7
   546   000008                     	ds	1
   547   000009                     ??_InterruptManager:
   548                           
   549                           ; 1 bytes @ 0x8
   550   000009                     	ds	4
   551   00000D                     ?___awdiv:
   552                           	callstack 0
   553   00000D                     ?___awmod:
   554                           	callstack 0
   555   00000D                     ?___xxtofl:
   556                           	callstack 0
   557   00000D                     analog_pin_functionality@pin_functionality:
   558                           	callstack 0
   559   00000D                     adc_select_channel@adc_confg:
   560                           	callstack 0
   561   00000D                     adc_startconversion@adc_confg:
   562                           	callstack 0
   563   00000D                     set_adc_interrupt@adc_confg:
   564                           	callstack 0
   565   00000D                     interrupt_ccp1_cfg@ccp_obj:
   566                           	callstack 0
   567   00000D                     gpio_pin_direction_intialize@Pin_Config:
   568                           	callstack 0
   569   00000D                     gpio_pin_write_logic@Pin_Config:
   570                           	callstack 0
   571   00000D                     prescaler_timer_status@timer2:
   572                           	callstack 0
   573   00000D                     set_TIMER2_interrupt@timer2:
   574                           	callstack 0
   575   00000D                     ___awdiv@dividend:
   576                           	callstack 0
   577   00000D                     ___awmod@dividend:
   578                           	callstack 0
   579   00000D                     memset@dest:
   580                           	callstack 0
   581   00000D                     fputc@c:
   582                           	callstack 0
   583   00000D                     ___xxtofl@val:
   584                           	callstack 0
   585                           
   586                           ; 4 bytes @ 0xC
   587   00000D                     	ds	2
   588   00000F                     ??_gpio_pin_direction_intialize:
   589   00000F                     ??_prescaler_timer_status:
   590   00000F                     adc_select_channel@channel:
   591                           	callstack 0
   592   00000F                     adc_startconversion@ret:
   593                           	callstack 0
   594   00000F                     gpio_pin_write_logic@logic:
   595                           	callstack 0
   596   00000F                     ___awdiv@divisor:
   597                           	callstack 0
   598   00000F                     ___awmod@divisor:
   599                           	callstack 0
   600   00000F                     memset@c:
   601                           	callstack 0
   602   00000F                     fputc@fp:
   603                           	callstack 0
   604                           
   605                           ; 2 bytes @ 0xE
   606   00000F                     	ds	1
   607   000010                     ??_gpio_pin_write_logic:
   608   000010                     ??_adc_select_channel:
   609   000010                     Timer2_init@timer2:
   610                           	callstack 0
   611                           
   612                           ; 2 bytes @ 0xF
   613   000010                     	ds	1
   614   000011                     ??_fputc:
   615   000011                     ??___xxtofl:
   616   000011                     adc_select_channel@ret:
   617                           	callstack 0
   618   000011                     ___awdiv@counter:
   619                           	callstack 0
   620   000011                     ___awmod@counter:
   621                           	callstack 0
   622   000011                     memset@n:
   623                           	callstack 0
   624                           
   625                           ; 2 bytes @ 0x10
   626   000011                     	ds	1
   627   000012                     ___awdiv@sign:
   628                           	callstack 0
   629   000012                     ___awmod@sign:
   630                           	callstack 0
   631   000012                     ADC_StartConversion_Interrupt@adc_confg:
   632                           	callstack 0
   633                           
   634                           ; 2 bytes @ 0x11
   635   000012                     	ds	1
   636   000013                     ??_memset:
   637   000013                     ?_abs:
   638                           	callstack 0
   639   000013                     ___awdiv@quotient:
   640                           	callstack 0
   641   000013                     abs@a:
   642                           	callstack 0
   643                           
   644                           ; 2 bytes @ 0x12
   645   000013                     	ds	1
   646   000014                     ADC_StartConversion_Interrupt@channel:
   647                           	callstack 0
   648                           
   649                           ; 1 bytes @ 0x13
   650   000014                     	ds	1
   651   000015                     ??_abs:
   652   000015                     ADC_StartConversion_Interrupt@ret:
   653                           	callstack 0
   654   000015                     gpio_pin_direction_intialize@ret:
   655                           	callstack 0
   656   000015                     ___xxtofl@sign:
   657                           	callstack 0
   658   000015                     memset@k:
   659                           	callstack 0
   660                           
   661                           ; 2 bytes @ 0x14
   662   000015                     	ds	1
   663   000016                     gpio_pin_write_logic@ret:
   664                           	callstack 0
   665   000016                     ___xxtofl@exp:
   666                           	callstack 0
   667   000016                     adc_init@adc_confg:
   668                           	callstack 0
   669   000016                     fputs@s:
   670                           	callstack 0
   671                           
   672                           ; 2 bytes @ 0x15
   673   000016                     	ds	1
   674   000017                     send_4_bit_enable@lcd:
   675                           	callstack 0
   676   000017                     send_4_bit_help@lcd:
   677                           	callstack 0
   678   000017                     motor_move_right@motor:
   679                           	callstack 0
   680   000017                     gpio_pin_intialize@Pin_Config:
   681                           	callstack 0
   682   000017                     memset@s:
   683                           	callstack 0
   684   000017                     ___xxtofl@arg:
   685                           	callstack 0
   686                           
   687                           ; 4 bytes @ 0x16
   688   000017                     	ds	1
   689   000018                     ??_adc_init:
   690   000018                     fputs@fp:
   691                           	callstack 0
   692                           
   693                           ; 2 bytes @ 0x17
   694   000018                     	ds	1
   695   000019                     ??_gpio_pin_intialize:
   696   000019                     send_4_bit_enable@ret:
   697                           	callstack 0
   698   000019                     send_4_bit_help@data_command:
   699                           	callstack 0
   700                           
   701                           ; 1 bytes @ 0x18
   702   000019                     	ds	1
   703   00001A                     send_4_bit_help@ret:
   704                           	callstack 0
   705   00001A                     gpio_pin_intialize@ret:
   706                           	callstack 0
   707   00001A                     fputs@c:
   708                           	callstack 0
   709                           
   710                           ; 1 bytes @ 0x19
   711   00001A                     	ds	1
   712   00001B                     ?___flmul:
   713                           	callstack 0
   714   00001B                     send_4_bit_command@lcd:
   715                           	callstack 0
   716   00001B                     send_4_bit_char_data@lcd:
   717                           	callstack 0
   718   00001B                     motor_initialize@motor:
   719                           	callstack 0
   720   00001B                     fputs@i:
   721                           	callstack 0
   722   00001B                     ___flmul@b:
   723                           	callstack 0
   724                           
   725                           ; 4 bytes @ 0x1A
   726   00001B                     	ds	2
   727   00001D                     send_4_bit_command@command:
   728                           	callstack 0
   729   00001D                     send_4_bit_char_data@data:
   730                           	callstack 0
   731   00001D                     pad@fp:
   732                           	callstack 0
   733                           
   734                           ; 2 bytes @ 0x1C
   735   00001D                     	ds	1
   736   00001E                     send_4_bit_command@ret:
   737                           	callstack 0
   738   00001E                     send_4_bit_char_data@ret:
   739                           	callstack 0
   740                           
   741                           ; 1 bytes @ 0x1D
   742   00001E                     	ds	1
   743   00001F                     lcd_pins_4_initialize@lcd:
   744                           	callstack 0
   745   00001F                     lcd_4_bit_set_cursor@lcd:
   746                           	callstack 0
   747   00001F                     pad@buf:
   748                           	callstack 0
   749   00001F                     ___flmul@a:
   750                           	callstack 0
   751                           
   752                           ; 4 bytes @ 0x1E
   753   00001F                     	ds	2
   754   000021                     ??_lcd_pins_4_initialize:
   755   000021                     lcd_4_bit_set_cursor@row:
   756                           	callstack 0
   757   000021                     pad@p:
   758                           	callstack 0
   759                           
   760                           ; 2 bytes @ 0x20
   761   000021                     	ds	1
   762   000022                     lcd_4_bit_set_cursor@column:
   763                           	callstack 0
   764                           
   765                           ; 1 bytes @ 0x21
   766   000022                     	ds	1
   767   000023                     ??___flmul:
   768   000023                     ??_pad:
   769   000023                     lcd_pins_4_initialize@ret:
   770                           	callstack 0
   771   000023                     lcd_4_bit_set_cursor@ret:
   772                           	callstack 0
   773                           
   774                           ; 1 bytes @ 0x22
   775   000023                     	ds	1
   776   000024                     lcd_pins_4_initialize@cnt_pin:
   777                           	callstack 0
   778   000024                     send_4_bit_string_data_pos@lcd:
   779                           	callstack 0
   780   000024                     pad@i:
   781                           	callstack 0
   782                           
   783                           ; 2 bytes @ 0x23
   784   000024                     	ds	2
   785   000026                     send_4_bit_string_data_pos@row:
   786                           	callstack 0
   787   000026                     pad@w:
   788                           	callstack 0
   789                           
   790                           ; 2 bytes @ 0x25
   791   000026                     	ds	1
   792   000027                     send_4_bit_string_data_pos@column:
   793                           	callstack 0
   794   000027                     ___flmul@sign:
   795                           	callstack 0
   796                           
   797                           ; 1 bytes @ 0x26
   798   000027                     	ds	1
   799   000028                     ___flmul@aexp:
   800                           	callstack 0
   801   000028                     send_4_bit_string_data_pos@data:
   802                           	callstack 0
   803   000028                     dtoa@fp:
   804                           	callstack 0
   805                           
   806                           ; 2 bytes @ 0x27
   807   000028                     	ds	1
   808   000029                     ___flmul@grs:
   809                           	callstack 0
   810                           
   811                           ; 4 bytes @ 0x28
   812   000029                     	ds	1
   813   00002A                     dtoa@d:
   814                           	callstack 0
   815                           
   816                           ; 2 bytes @ 0x29
   817   00002A                     	ds	2
   818   00002C                     _dtoa$2255:
   819                           	callstack 0
   820                           
   821                           ; 2 bytes @ 0x2B
   822   00002C                     	ds	1
   823   00002D                     ___flmul@bexp:
   824                           	callstack 0
   825                           
   826                           ; 1 bytes @ 0x2C
   827   00002D                     	ds	1
   828   00002E                     dtoa@p:
   829                           	callstack 0
   830   00002E                     ___flmul@prod:
   831                           	callstack 0
   832                           
   833                           ; 4 bytes @ 0x2D
   834   00002E                     	ds	2
   835   000030                     dtoa@w:
   836                           	callstack 0
   837                           
   838                           ; 2 bytes @ 0x2F
   839   000030                     	ds	2
   840   000032                     ___flmul@temp:
   841                           	callstack 0
   842   000032                     dtoa@i:
   843                           	callstack 0
   844                           
   845                           ; 2 bytes @ 0x31
   846   000032                     	ds	2
   847   000034                     ?___fldiv:
   848                           	callstack 0
   849   000034                     dtoa@s:
   850                           	callstack 0
   851   000034                     ___fldiv@b:
   852                           	callstack 0
   853                           
   854                           ; 4 bytes @ 0x33
   855   000034                     	ds	1
   856   000035                     vfpfcnvrt@fp:
   857                           	callstack 0
   858                           
   859                           ; 2 bytes @ 0x34
   860   000035                     	ds	2
   861   000037                     vfpfcnvrt@fmt:
   862                           	callstack 0
   863                           
   864                           ; 2 bytes @ 0x36
   865   000037                     	ds	1
   866   000038                     ___fldiv@a:
   867                           	callstack 0
   868                           
   869                           ; 4 bytes @ 0x37
   870   000038                     	ds	1
   871   000039                     vfpfcnvrt@ap:
   872                           	callstack 0
   873                           
   874                           ; 2 bytes @ 0x38
   875   000039                     	ds	2
   876   00003B                     ??_vfpfcnvrt:
   877                           
   878                           ; 1 bytes @ 0x3A
   879   00003B                     	ds	1
   880   00003C                     ??___fldiv:
   881                           
   882                           ; 1 bytes @ 0x3B
   883   00003C                     	ds	1
   884   00003D                     vfpfcnvrt@convarg:
   885                           	callstack 0
   886                           
   887                           ; 4 bytes @ 0x3C
   888   00003D                     	ds	3
   889   000040                     ___fldiv@rem:
   890                           	callstack 0
   891                           
   892                           ; 4 bytes @ 0x3F
   893   000040                     	ds	1
   894   000041                     vfpfcnvrt@cp:
   895                           	callstack 0
   896                           
   897                           ; 2 bytes @ 0x40
   898   000041                     	ds	2
   899   000043                     ?_vfprintf:
   900                           	callstack 0
   901   000043                     vfprintf@fp:
   902                           	callstack 0
   903                           
   904                           ; 2 bytes @ 0x42
   905   000043                     	ds	1
   906   000044                     ___fldiv@sign:
   907                           	callstack 0
   908                           
   909                           ; 1 bytes @ 0x43
   910   000044                     	ds	1
   911   000045                     ___fldiv@new_exp:
   912                           	callstack 0
   913   000045                     vfprintf@fmt:
   914                           	callstack 0
   915                           
   916                           ; 2 bytes @ 0x44
   917   000045                     	ds	2
   918   000047                     vfprintf@ap:
   919                           	callstack 0
   920   000047                     ___fldiv@grs:
   921                           	callstack 0
   922                           
   923                           ; 4 bytes @ 0x46
   924   000047                     	ds	2
   925   000049                     vfprintf@cfmt:
   926                           	callstack 0
   927                           
   928                           ; 2 bytes @ 0x48
   929   000049                     	ds	2
   930   00004B                     ?_sprintf:
   931                           	callstack 0
   932   00004B                     ___fldiv@bexp:
   933                           	callstack 0
   934   00004B                     sprintf@s:
   935                           	callstack 0
   936                           
   937                           ; 2 bytes @ 0x4A
   938   00004B                     	ds	1
   939   00004C                     ___fldiv@aexp:
   940                           	callstack 0
   941                           
   942                           ; 1 bytes @ 0x4B
   943   00004C                     	ds	1
   944   00004D                     ?___fladd:
   945                           	callstack 0
   946   00004D                     sprintf@fmt:
   947                           	callstack 0
   948   00004D                     ___fladd@b:
   949                           	callstack 0
   950                           
   951                           ; 4 bytes @ 0x4C
   952   00004D                     	ds	4
   953   000051                     sprintf@ap:
   954                           	callstack 0
   955   000051                     ___fladd@a:
   956                           	callstack 0
   957                           
   958                           ; 4 bytes @ 0x50
   959   000051                     	ds	2
   960   000053                     sprintf@f:
   961                           	callstack 0
   962                           
   963                           ; 12 bytes @ 0x52
   964   000053                     	ds	2
   965   000055                     ??___fladd:
   966                           
   967                           ; 1 bytes @ 0x54
   968   000055                     	ds	4
   969   000059                     ___fladd@signs:
   970                           	callstack 0
   971                           
   972                           ; 1 bytes @ 0x58
   973   000059                     	ds	1
   974   00005A                     ___fladd@aexp:
   975                           	callstack 0
   976                           
   977                           ; 1 bytes @ 0x59
   978   00005A                     	ds	1
   979   00005B                     ___fladd@bexp:
   980                           	callstack 0
   981                           
   982                           ; 1 bytes @ 0x5A
   983   00005B                     	ds	1
   984   00005C                     ___fladd@grs:
   985                           	callstack 0
   986                           
   987                           ; 1 bytes @ 0x5B
   988   00005C                     	ds	1
   989   00005D                     ?___fltol:
   990                           	callstack 0
   991   00005D                     ___fltol@f1:
   992                           	callstack 0
   993                           
   994                           ; 4 bytes @ 0x5C
   995   00005D                     	ds	2
   996   00005F                     cnvert_uint8_to_string@str:
   997                           	callstack 0
   998                           
   999                           ; 2 bytes @ 0x5E
  1000   00005F                     	ds	2
  1001   000061                     ??___fltol:
  1002   000061                     cnvert_uint8_to_string@Temp_String:
  1003                           	callstack 0
  1004                           
  1005                           ; 4 bytes @ 0x60
  1006   000061                     	ds	4
  1007   000065                     cnvert_uint8_to_string@value:
  1008                           	callstack 0
  1009   000065                     ___fltol@sign1:
  1010                           	callstack 0
  1011                           
  1012                           ; 1 bytes @ 0x64
  1013   000065                     	ds	1
  1014   000066                     cnvert_uint8_to_string@DataCounter:
  1015                           	callstack 0
  1016   000066                     ___fltol@exp1:
  1017                           	callstack 0
  1018                           
  1019                           ; 1 bytes @ 0x65
  1020   000066                     	ds	1
  1021   000067                     
  1022                           ; 1 bytes @ 0x66
  1023   000067                     	ds	1
  1024   000068                     
  1025                           ; 1 bytes @ 0x67
  1026 ;;
  1027 ;;Main: autosize = 0, tempsize = 0, incstack = 0, save=0
  1028 ;;
  1029 ;; *************** function _main *****************
  1030 ;; Defined at:
  1031 ;;		line 88 in file "Fan_contraller.c"
  1032 ;; Parameters:    Size  Location     Type
  1033 ;;		None
  1034 ;; Auto vars:     Size  Location     Type
  1035 ;;  ret             1    0        unsigned char 
  1036 ;; Return value:  Size  Location     Type
  1037 ;;                  2  638[None  ] int 
  1038 ;; Registers used:
  1039 ;;		wreg, fsr1l, fsr1h, fsr2l, fsr2h, status,2, status,0, tblptrl, tblptrh, tblptru, prodl, prodh, cstack
  1040 ;; Tracked objects:
  1041 ;;		On entry : 0/0
  1042 ;;		On exit  : 0/0
  1043 ;;		Unchanged: 0/0
  1044 ;; Data sizes:     COMRAM   BANK0   BANK1   BANK2   BANK3   BANK4   BANK5   BANK6   BANK7   BANK8   BANK9  BANK10  BANK1
      +1  BANK12  BANK13  BANK14  BANK15
  1045 ;;      Params:         0       0       0       0       0       0       0       0       0       0       0       0       
      +0       0       0       0       0
  1046 ;;      Locals:         0       0       0       0       0       0       0       0       0       0       0       0       
      +0       0       0       0       0
  1047 ;;      Temps:          0       0       0       0       0       0       0       0       0       0       0       0       
      +0       0       0       0       0
  1048 ;;      Totals:         0       0       0       0       0       0       0       0       0       0       0       0       
      +0       0       0       0       0
  1049 ;;Total ram usage:        0 bytes
  1050 ;; Hardware stack levels required when called: 13
  1051 ;; This function calls:
  1052 ;;		_ADC_StartConversion_Interrupt
  1053 ;;		_CCP_PWM_Set_Duty
  1054 ;;		___fldiv
  1055 ;;		___flmul
  1056 ;;		___fltol
  1057 ;;		___xxtofl
  1058 ;;		_application_initialize
  1059 ;;		_cnvert_uint8_to_string
  1060 ;;		_motor_move_right
  1061 ;;		_send_4_bit_char_data
  1062 ;;		_send_4_bit_string_data_pos
  1063 ;; This function is called by:
  1064 ;;		Startup code after reset
  1065 ;; This function uses a non-reentrant model
  1066 ;;
  1067                           
  1068                           	psect	text0
  1069   001CF6                     __ptext0:
  1070                           	callstack 0
  1071   001CF6                     _main:
  1072                           	callstack 18
  1073   001CF6                     
  1074                           ;Fan_contraller.c: 90:      application_initialize();
  1075   001CF6  EC3B  F01D         	call	_application_initialize	;wreg free
  1076   001CFA                     
  1077                           ;Fan_contraller.c: 92:      motor_move_right(&motor);
  1078   001CFA  0EB9               	movlw	low _motor
  1079   001CFC  6E17               	movwf	motor_move_right@motor^0,c
  1080   001CFE  0E00               	movlw	high _motor
  1081   001D00  6E18               	movwf	(motor_move_right@motor+1)^0,c
  1082   001D02  EC7B  F01D         	call	_motor_move_right	;wreg free
  1083   001D06                     l5731:
  1084   001D06  0EAB               	movlw	low _adc_0
  1085   001D08  6E12               	movwf	ADC_StartConversion_Interrupt@adc_confg^0,c
  1086   001D0A  0E00               	movlw	high _adc_0
  1087   001D0C  6E13               	movwf	(ADC_StartConversion_Interrupt@adc_confg+1)^0,c
  1088   001D0E  C0AE  F014         	movff	_adc_0+3,ADC_StartConversion_Interrupt@channel
  1089   001D12  EC5B  F01D         	call	_ADC_StartConversion_Interrupt	;wreg free
  1090   001D16                     
  1091                           ;Fan_contraller.c: 96:          lm35_res_celsius = ((lm35_res * 4.88f) / 10);
  1092   001D16  0E00               	movlw	0
  1093   001D18  6E38               	movwf	___fldiv@a^0,c
  1094   001D1A  0E00               	movlw	0
  1095   001D1C  6E39               	movwf	(___fldiv@a+1)^0,c
  1096   001D1E  0E20               	movlw	32
  1097   001D20  6E3A               	movwf	(___fldiv@a+2)^0,c
  1098   001D22  0E41               	movlw	65
  1099   001D24  6E3B               	movwf	(___fldiv@a+3)^0,c
  1100   001D26  0EF6               	movlw	246
  1101   001D28  6E1F               	movwf	___flmul@a^0,c
  1102   001D2A  0E28               	movlw	40
  1103   001D2C  6E20               	movwf	(___flmul@a+1)^0,c
  1104   001D2E  0E9C               	movlw	156
  1105   001D30  6E21               	movwf	(___flmul@a+2)^0,c
  1106   001D32  0E40               	movlw	64
  1107   001D34  6E22               	movwf	(___flmul@a+3)^0,c
  1108   001D36  C071  F00D         	movff	_lm35_res,___xxtofl@val	;volatile
  1109   001D3A  C072  F00E         	movff	_lm35_res+1,___xxtofl@val+1	;volatile
  1110   001D3E  6A0F               	clrf	(___xxtofl@val+2)^0,c
  1111   001D40  6A10               	clrf	(___xxtofl@val+3)^0,c
  1112   001D42  0E00               	movlw	0
  1113   001D44  EC4E  F011         	call	___xxtofl
  1114   001D48  C00D  F01B         	movff	?___xxtofl,___flmul@b
  1115   001D4C  C00E  F01C         	movff	?___xxtofl+1,___flmul@b+1
  1116   001D50  C00F  F01D         	movff	?___xxtofl+2,___flmul@b+2
  1117   001D54  C010  F01E         	movff	?___xxtofl+3,___flmul@b+3
  1118   001D58  EC99  F00A         	call	___flmul	;wreg free
  1119   001D5C  C01B  F034         	movff	?___flmul,___fldiv@b
  1120   001D60  C01C  F035         	movff	?___flmul+1,___fldiv@b+1
  1121   001D64  C01D  F036         	movff	?___flmul+2,___fldiv@b+2
  1122   001D68  C01E  F037         	movff	?___flmul+3,___fldiv@b+3
  1123   001D6C  ECAE  F00C         	call	___fldiv	;wreg free
  1124   001D70  C034  F05D         	movff	?___fldiv,___fltol@f1
  1125   001D74  C035  F05E         	movff	?___fldiv+1,___fltol@f1+1
  1126   001D78  C036  F05F         	movff	?___fldiv+2,___fltol@f1+2
  1127   001D7C  C037  F060         	movff	?___fldiv+3,___fltol@f1+3
  1128   001D80  ECDF  F017         	call	___fltol	;wreg free
  1129   001D84  C05D  F06A         	movff	?___fltol,_lm35_res_celsius
  1130   001D88  C05E  F06B         	movff	?___fltol+1,_lm35_res_celsius+1
  1131   001D8C                     
  1132                           ;Fan_contraller.c: 98:          cnvert_uint8_to_string(lm35_res_celsius,arr_val);
  1133   001D8C  0EDC               	movlw	low _arr_val
  1134   001D8E  6E5F               	movwf	cnvert_uint8_to_string@str^0,c
  1135   001D90  0E00               	movlw	high _arr_val
  1136   001D92  6E60               	movwf	(cnvert_uint8_to_string@str+1)^0,c
  1137   001D94  506A               	movf	_lm35_res_celsius^0,w,c
  1138   001D96  ECF0  F019         	call	_cnvert_uint8_to_string
  1139   001D9A                     
  1140                           ;Fan_contraller.c: 99:          send_4_bit_string_data_pos(&lcd_4bit, 1, 1, "Temperature
      +                           = ");
  1141   001D9A  0EB3               	movlw	low _lcd_4bit
  1142   001D9C  6E24               	movwf	send_4_bit_string_data_pos@lcd^0,c
  1143   001D9E  0E00               	movlw	high _lcd_4bit
  1144   001DA0  6E25               	movwf	(send_4_bit_string_data_pos@lcd+1)^0,c
  1145   001DA2  0E01               	movlw	1
  1146   001DA4  6E26               	movwf	send_4_bit_string_data_pos@row^0,c
  1147   001DA6  0E01               	movlw	1
  1148   001DA8  6E27               	movwf	send_4_bit_string_data_pos@column^0,c
  1149   001DAA  0E01               	movlw	low STR_4
  1150   001DAC  6E28               	movwf	send_4_bit_string_data_pos@data^0,c
  1151   001DAE  0E10               	movlw	high STR_4
  1152   001DB0  6E29               	movwf	(send_4_bit_string_data_pos@data+1)^0,c
  1153   001DB2  ECA0  F01A         	call	_send_4_bit_string_data_pos	;wreg free
  1154   001DB6                     
  1155                           ;Fan_contraller.c: 100:          send_4_bit_string_data_pos(&lcd_4bit, 1, 15, arr_val);
  1156   001DB6  0EB3               	movlw	low _lcd_4bit
  1157   001DB8  6E24               	movwf	send_4_bit_string_data_pos@lcd^0,c
  1158   001DBA  0E00               	movlw	high _lcd_4bit
  1159   001DBC  6E25               	movwf	(send_4_bit_string_data_pos@lcd+1)^0,c
  1160   001DBE  0E01               	movlw	1
  1161   001DC0  6E26               	movwf	send_4_bit_string_data_pos@row^0,c
  1162   001DC2  0E0F               	movlw	15
  1163   001DC4  6E27               	movwf	send_4_bit_string_data_pos@column^0,c
  1164   001DC6  0EDC               	movlw	low _arr_val
  1165   001DC8  6E28               	movwf	send_4_bit_string_data_pos@data^0,c
  1166   001DCA  0E00               	movlw	high _arr_val
  1167   001DCC  6E29               	movwf	(send_4_bit_string_data_pos@data+1)^0,c
  1168   001DCE  ECA0  F01A         	call	_send_4_bit_string_data_pos	;wreg free
  1169   001DD2                     
  1170                           ;Fan_contraller.c: 101:          send_4_bit_char_data(&lcd_4bit,'C');
  1171   001DD2  0EB3               	movlw	low _lcd_4bit
  1172   001DD4  6E1B               	movwf	send_4_bit_char_data@lcd^0,c
  1173   001DD6  0E00               	movlw	high _lcd_4bit
  1174   001DD8  6E1C               	movwf	(send_4_bit_char_data@lcd+1)^0,c
  1175   001DDA  0E43               	movlw	67
  1176   001DDC  6E1D               	movwf	send_4_bit_char_data@data^0,c
  1177   001DDE  EC6C  F01B         	call	_send_4_bit_char_data	;wreg free
  1178   001DE2                     
  1179                           ;Fan_contraller.c: 103:          if(lm35_res_celsius < 25)
  1180   001DE2  506B               	movf	(_lm35_res_celsius+1)^0,w,c
  1181   001DE4  E107               	bnz	u6521
  1182   001DE6  0E19               	movlw	25
  1183   001DE8  5C6A               	subwf	_lm35_res_celsius^0,w,c
  1184   001DEA  B0D8               	btfsc	status,0,c
  1185   001DEC  EFFA  F00E         	goto	u6521
  1186   001DF0  EFFC  F00E         	goto	u6520
  1187   001DF4                     u6521:
  1188   001DF4  EF23  F00F         	goto	l5751
  1189   001DF8                     u6520:
  1190   001DF8  0E9E               	movlw	low _ccp_pwm_obj
  1191   001DFA  0100               	movlb	0	; () banked
  1192   001DFC  6FE2               	movwf	CCP_PWM_Set_Duty@ccp_obj& (0+255),b
  1193   001DFE  0E00               	movlw	high _ccp_pwm_obj
  1194   001E00  6FE3               	movwf	(CCP_PWM_Set_Duty@ccp_obj+1)& (0+255),b
  1195   001E02  0E00               	movlw	0
  1196   001E04  6FE4               	movwf	CCP_PWM_Set_Duty@duty& (0+255),b
  1197   001E06  EC10  F010         	call	_CCP_PWM_Set_Duty	;wreg free
  1198   001E0A                     
  1199                           ;Fan_contraller.c: 106:              send_4_bit_string_data_pos(&lcd_4bit, 2, 1, "Motor 
      +                          Is Off");
  1200   001E0A  0EB3               	movlw	low _lcd_4bit
  1201   001E0C  6E24               	movwf	send_4_bit_string_data_pos@lcd^0,c
  1202   001E0E  0E00               	movlw	high _lcd_4bit
  1203   001E10  6E25               	movwf	(send_4_bit_string_data_pos@lcd+1)^0,c
  1204   001E12  0E02               	movlw	2
  1205   001E14  6E26               	movwf	send_4_bit_string_data_pos@row^0,c
  1206   001E16  0E01               	movlw	1
  1207   001E18  6E27               	movwf	send_4_bit_string_data_pos@column^0,c
  1208   001E1A  0E46               	movlw	low STR_5
  1209   001E1C  6E28               	movwf	send_4_bit_string_data_pos@data^0,c
  1210   001E1E  0E10               	movlw	high STR_5
  1211   001E20  6E29               	movwf	(send_4_bit_string_data_pos@data+1)^0,c
  1212   001E22  ECA0  F01A         	call	_send_4_bit_string_data_pos	;wreg free
  1213   001E26                     
  1214                           ;Fan_contraller.c: 107:              send_4_bit_string_data_pos(&lcd_4bit, 3, 1, "      
      +                                ");
  1215   001E26  0EB3               	movlw	low _lcd_4bit
  1216   001E28  6E24               	movwf	send_4_bit_string_data_pos@lcd^0,c
  1217   001E2A  0E00               	movlw	high _lcd_4bit
  1218   001E2C  6E25               	movwf	(send_4_bit_string_data_pos@lcd+1)^0,c
  1219   001E2E  0E03               	movlw	3
  1220   001E30  6E26               	movwf	send_4_bit_string_data_pos@row^0,c
  1221   001E32  0E01               	movlw	1
  1222   001E34  6E27               	movwf	send_4_bit_string_data_pos@column^0,c
  1223   001E36  0E2C               	movlw	low STR_6
  1224   001E38  6E28               	movwf	send_4_bit_string_data_pos@data^0,c
  1225   001E3A  0E10               	movlw	high STR_6
  1226   001E3C  6E29               	movwf	(send_4_bit_string_data_pos@data+1)^0,c
  1227   001E3E  ECA0  F01A         	call	_send_4_bit_string_data_pos	;wreg free
  1228                           
  1229                           ;Fan_contraller.c: 108:          }
  1230   001E42  EF83  F00E         	goto	l5731
  1231   001E46                     l5751:
  1232   001E46  506B               	movf	(_lm35_res_celsius+1)^0,w,c
  1233   001E48  E109               	bnz	u6530
  1234   001E4A  0E19               	movlw	25
  1235   001E4C  5C6A               	subwf	_lm35_res_celsius^0,w,c
  1236   001E4E  A0D8               	btfss	status,0,c
  1237   001E50  EF2C  F00F         	goto	u6531
  1238   001E54  EF2E  F00F         	goto	u6530
  1239   001E58                     u6531:
  1240   001E58  EF60  F00F         	goto	l5761
  1241   001E5C                     u6530:
  1242   001E5C  506B               	movf	(_lm35_res_celsius+1)^0,w,c
  1243   001E5E  E107               	bnz	u6541
  1244   001E60  0E28               	movlw	40
  1245   001E62  5C6A               	subwf	_lm35_res_celsius^0,w,c
  1246   001E64  B0D8               	btfsc	status,0,c
  1247   001E66  EF37  F00F         	goto	u6541
  1248   001E6A  EF39  F00F         	goto	u6540
  1249   001E6E                     u6541:
  1250   001E6E  EF60  F00F         	goto	l5761
  1251   001E72                     u6540:
  1252   001E72  0E9E               	movlw	low _ccp_pwm_obj
  1253   001E74  0100               	movlb	0	; () banked
  1254   001E76  6FE2               	movwf	CCP_PWM_Set_Duty@ccp_obj& (0+255),b
  1255   001E78  0E00               	movlw	high _ccp_pwm_obj
  1256   001E7A  6FE3               	movwf	(CCP_PWM_Set_Duty@ccp_obj+1)& (0+255),b
  1257   001E7C  0E19               	movlw	25
  1258   001E7E  6FE4               	movwf	CCP_PWM_Set_Duty@duty& (0+255),b
  1259   001E80  EC10  F010         	call	_CCP_PWM_Set_Duty	;wreg free
  1260   001E84                     
  1261                           ;Fan_contraller.c: 113:              send_4_bit_string_data_pos(&lcd_4bit, 2, 1, "Motor 
      +                          Is On ");
  1262   001E84  0EB3               	movlw	low _lcd_4bit
  1263   001E86  6E24               	movwf	send_4_bit_string_data_pos@lcd^0,c
  1264   001E88  0E00               	movlw	high _lcd_4bit
  1265   001E8A  6E25               	movwf	(send_4_bit_string_data_pos@lcd+1)^0,c
  1266   001E8C  0E02               	movlw	2
  1267   001E8E  6E26               	movwf	send_4_bit_string_data_pos@row^0,c
  1268   001E90  0E01               	movlw	1
  1269   001E92  6E27               	movwf	send_4_bit_string_data_pos@column^0,c
  1270   001E94  0E39               	movlw	low STR_7
  1271   001E96  6E28               	movwf	send_4_bit_string_data_pos@data^0,c
  1272   001E98  0E10               	movlw	high STR_7
  1273   001E9A  6E29               	movwf	(send_4_bit_string_data_pos@data+1)^0,c
  1274   001E9C  ECA0  F01A         	call	_send_4_bit_string_data_pos	;wreg free
  1275   001EA0                     
  1276                           ;Fan_contraller.c: 114:              send_4_bit_string_data_pos(&lcd_4bit, 3, 1, "25% Ca
      +                          pacity");
  1277   001EA0  0EB3               	movlw	low _lcd_4bit
  1278   001EA2  6E24               	movwf	send_4_bit_string_data_pos@lcd^0,c
  1279   001EA4  0E00               	movlw	high _lcd_4bit
  1280   001EA6  6E25               	movwf	(send_4_bit_string_data_pos@lcd+1)^0,c
  1281   001EA8  0E03               	movlw	3
  1282   001EAA  6E26               	movwf	send_4_bit_string_data_pos@row^0,c
  1283   001EAC  0E01               	movlw	1
  1284   001EAE  6E27               	movwf	send_4_bit_string_data_pos@column^0,c
  1285   001EB0  0E60               	movlw	low STR_8
  1286   001EB2  6E28               	movwf	send_4_bit_string_data_pos@data^0,c
  1287   001EB4  0E10               	movlw	high STR_8
  1288   001EB6  6E29               	movwf	(send_4_bit_string_data_pos@data+1)^0,c
  1289   001EB8  ECA0  F01A         	call	_send_4_bit_string_data_pos	;wreg free
  1290                           
  1291                           ;Fan_contraller.c: 115:          }
  1292   001EBC  EF83  F00E         	goto	l5731
  1293   001EC0                     l5761:
  1294   001EC0  506B               	movf	(_lm35_res_celsius+1)^0,w,c
  1295   001EC2  E109               	bnz	u6550
  1296   001EC4  0E28               	movlw	40
  1297   001EC6  5C6A               	subwf	_lm35_res_celsius^0,w,c
  1298   001EC8  A0D8               	btfss	status,0,c
  1299   001ECA  EF69  F00F         	goto	u6551
  1300   001ECE  EF6B  F00F         	goto	u6550
  1301   001ED2                     u6551:
  1302   001ED2  EF9D  F00F         	goto	l5771
  1303   001ED6                     u6550:
  1304   001ED6  506B               	movf	(_lm35_res_celsius+1)^0,w,c
  1305   001ED8  E107               	bnz	u6561
  1306   001EDA  0E32               	movlw	50
  1307   001EDC  5C6A               	subwf	_lm35_res_celsius^0,w,c
  1308   001EDE  B0D8               	btfsc	status,0,c
  1309   001EE0  EF74  F00F         	goto	u6561
  1310   001EE4  EF76  F00F         	goto	u6560
  1311   001EE8                     u6561:
  1312   001EE8  EF9D  F00F         	goto	l5771
  1313   001EEC                     u6560:
  1314   001EEC  0E9E               	movlw	low _ccp_pwm_obj
  1315   001EEE  0100               	movlb	0	; () banked
  1316   001EF0  6FE2               	movwf	CCP_PWM_Set_Duty@ccp_obj& (0+255),b
  1317   001EF2  0E00               	movlw	high _ccp_pwm_obj
  1318   001EF4  6FE3               	movwf	(CCP_PWM_Set_Duty@ccp_obj+1)& (0+255),b
  1319   001EF6  0E32               	movlw	50
  1320   001EF8  6FE4               	movwf	CCP_PWM_Set_Duty@duty& (0+255),b
  1321   001EFA  EC10  F010         	call	_CCP_PWM_Set_Duty	;wreg free
  1322   001EFE                     
  1323                           ;Fan_contraller.c: 120:              send_4_bit_string_data_pos(&lcd_4bit, 2, 1, "Motor 
      +                          Is On ");
  1324   001EFE  0EB3               	movlw	low _lcd_4bit
  1325   001F00  6E24               	movwf	send_4_bit_string_data_pos@lcd^0,c
  1326   001F02  0E00               	movlw	high _lcd_4bit
  1327   001F04  6E25               	movwf	(send_4_bit_string_data_pos@lcd+1)^0,c
  1328   001F06  0E02               	movlw	2
  1329   001F08  6E26               	movwf	send_4_bit_string_data_pos@row^0,c
  1330   001F0A  0E01               	movlw	1
  1331   001F0C  6E27               	movwf	send_4_bit_string_data_pos@column^0,c
  1332   001F0E  0E39               	movlw	low STR_7
  1333   001F10  6E28               	movwf	send_4_bit_string_data_pos@data^0,c
  1334   001F12  0E10               	movlw	high STR_7
  1335   001F14  6E29               	movwf	(send_4_bit_string_data_pos@data+1)^0,c
  1336   001F16  ECA0  F01A         	call	_send_4_bit_string_data_pos	;wreg free
  1337   001F1A                     
  1338                           ;Fan_contraller.c: 121:              send_4_bit_string_data_pos(&lcd_4bit, 3, 1, "50% Ca
      +                          pacity");
  1339   001F1A  0EB3               	movlw	low _lcd_4bit
  1340   001F1C  6E24               	movwf	send_4_bit_string_data_pos@lcd^0,c
  1341   001F1E  0E00               	movlw	high _lcd_4bit
  1342   001F20  6E25               	movwf	(send_4_bit_string_data_pos@lcd+1)^0,c
  1343   001F22  0E03               	movlw	3
  1344   001F24  6E26               	movwf	send_4_bit_string_data_pos@row^0,c
  1345   001F26  0E01               	movlw	1
  1346   001F28  6E27               	movwf	send_4_bit_string_data_pos@column^0,c
  1347   001F2A  0E53               	movlw	low STR_10
  1348   001F2C  6E28               	movwf	send_4_bit_string_data_pos@data^0,c
  1349   001F2E  0E10               	movlw	high STR_10
  1350   001F30  6E29               	movwf	(send_4_bit_string_data_pos@data+1)^0,c
  1351   001F32  ECA0  F01A         	call	_send_4_bit_string_data_pos	;wreg free
  1352                           
  1353                           ;Fan_contraller.c: 122:          }
  1354   001F36  EF83  F00E         	goto	l5731
  1355   001F3A                     l5771:
  1356   001F3A  506B               	movf	(_lm35_res_celsius+1)^0,w,c
  1357   001F3C  E109               	bnz	u6570
  1358   001F3E  0E32               	movlw	50
  1359   001F40  5C6A               	subwf	_lm35_res_celsius^0,w,c
  1360   001F42  A0D8               	btfss	status,0,c
  1361   001F44  EFA6  F00F         	goto	u6571
  1362   001F48  EFA8  F00F         	goto	u6570
  1363   001F4C                     u6571:
  1364   001F4C  EFDA  F00F         	goto	l5781
  1365   001F50                     u6570:
  1366   001F50  506B               	movf	(_lm35_res_celsius+1)^0,w,c
  1367   001F52  E107               	bnz	u6581
  1368   001F54  0E3C               	movlw	60
  1369   001F56  5C6A               	subwf	_lm35_res_celsius^0,w,c
  1370   001F58  B0D8               	btfsc	status,0,c
  1371   001F5A  EFB1  F00F         	goto	u6581
  1372   001F5E  EFB3  F00F         	goto	u6580
  1373   001F62                     u6581:
  1374   001F62  EFDA  F00F         	goto	l5781
  1375   001F66                     u6580:
  1376   001F66  0E9E               	movlw	low _ccp_pwm_obj
  1377   001F68  0100               	movlb	0	; () banked
  1378   001F6A  6FE2               	movwf	CCP_PWM_Set_Duty@ccp_obj& (0+255),b
  1379   001F6C  0E00               	movlw	high _ccp_pwm_obj
  1380   001F6E  6FE3               	movwf	(CCP_PWM_Set_Duty@ccp_obj+1)& (0+255),b
  1381   001F70  0E4B               	movlw	75
  1382   001F72  6FE4               	movwf	CCP_PWM_Set_Duty@duty& (0+255),b
  1383   001F74  EC10  F010         	call	_CCP_PWM_Set_Duty	;wreg free
  1384   001F78                     
  1385                           ;Fan_contraller.c: 126:              send_4_bit_string_data_pos(&lcd_4bit, 2, 1, "Motor 
      +                          Is On ");
  1386   001F78  0EB3               	movlw	low _lcd_4bit
  1387   001F7A  6E24               	movwf	send_4_bit_string_data_pos@lcd^0,c
  1388   001F7C  0E00               	movlw	high _lcd_4bit
  1389   001F7E  6E25               	movwf	(send_4_bit_string_data_pos@lcd+1)^0,c
  1390   001F80  0E02               	movlw	2
  1391   001F82  6E26               	movwf	send_4_bit_string_data_pos@row^0,c
  1392   001F84  0E01               	movlw	1
  1393   001F86  6E27               	movwf	send_4_bit_string_data_pos@column^0,c
  1394   001F88  0E39               	movlw	low STR_7
  1395   001F8A  6E28               	movwf	send_4_bit_string_data_pos@data^0,c
  1396   001F8C  0E10               	movlw	high STR_7
  1397   001F8E  6E29               	movwf	(send_4_bit_string_data_pos@data+1)^0,c
  1398   001F90  ECA0  F01A         	call	_send_4_bit_string_data_pos	;wreg free
  1399   001F94                     
  1400                           ;Fan_contraller.c: 127:              send_4_bit_string_data_pos(&lcd_4bit, 3, 1, "75% Ca
      +                          pacity ");
  1401   001F94  0EB3               	movlw	low _lcd_4bit
  1402   001F96  6E24               	movwf	send_4_bit_string_data_pos@lcd^0,c
  1403   001F98  0E00               	movlw	high _lcd_4bit
  1404   001F9A  6E25               	movwf	(send_4_bit_string_data_pos@lcd+1)^0,c
  1405   001F9C  0E03               	movlw	3
  1406   001F9E  6E26               	movwf	send_4_bit_string_data_pos@row^0,c
  1407   001FA0  0E01               	movlw	1
  1408   001FA2  6E27               	movwf	send_4_bit_string_data_pos@column^0,c
  1409   001FA4  0E10               	movlw	low STR_12
  1410   001FA6  6E28               	movwf	send_4_bit_string_data_pos@data^0,c
  1411   001FA8  0E10               	movlw	high STR_12
  1412   001FAA  6E29               	movwf	(send_4_bit_string_data_pos@data+1)^0,c
  1413   001FAC  ECA0  F01A         	call	_send_4_bit_string_data_pos	;wreg free
  1414                           
  1415                           ;Fan_contraller.c: 128:          }
  1416   001FB0  EF83  F00E         	goto	l5731
  1417   001FB4                     l5781:
  1418   001FB4  506B               	movf	(_lm35_res_celsius+1)^0,w,c
  1419   001FB6  E109               	bnz	u6590
  1420   001FB8  0E3C               	movlw	60
  1421   001FBA  5C6A               	subwf	_lm35_res_celsius^0,w,c
  1422   001FBC  A0D8               	btfss	status,0,c
  1423   001FBE  EFE3  F00F         	goto	u6591
  1424   001FC2  EFE5  F00F         	goto	u6590
  1425   001FC6                     u6591:
  1426   001FC6  EF0C  F010         	goto	l645
  1427   001FCA                     u6590:
  1428   001FCA  0E9E               	movlw	low _ccp_pwm_obj
  1429   001FCC  0100               	movlb	0	; () banked
  1430   001FCE  6FE2               	movwf	CCP_PWM_Set_Duty@ccp_obj& (0+255),b
  1431   001FD0  0E00               	movlw	high _ccp_pwm_obj
  1432   001FD2  6FE3               	movwf	(CCP_PWM_Set_Duty@ccp_obj+1)& (0+255),b
  1433   001FD4  0E64               	movlw	100
  1434   001FD6  6FE4               	movwf	CCP_PWM_Set_Duty@duty& (0+255),b
  1435   001FD8  EC10  F010         	call	_CCP_PWM_Set_Duty	;wreg free
  1436   001FDC                     
  1437                           ;Fan_contraller.c: 133:              send_4_bit_string_data_pos(&lcd_4bit, 2, 1, "Motor 
      +                          Is On ");
  1438   001FDC  0EB3               	movlw	low _lcd_4bit
  1439   001FDE  6E24               	movwf	send_4_bit_string_data_pos@lcd^0,c
  1440   001FE0  0E00               	movlw	high _lcd_4bit
  1441   001FE2  6E25               	movwf	(send_4_bit_string_data_pos@lcd+1)^0,c
  1442   001FE4  0E02               	movlw	2
  1443   001FE6  6E26               	movwf	send_4_bit_string_data_pos@row^0,c
  1444   001FE8  0E01               	movlw	1
  1445   001FEA  6E27               	movwf	send_4_bit_string_data_pos@column^0,c
  1446   001FEC  0E39               	movlw	low STR_7
  1447   001FEE  6E28               	movwf	send_4_bit_string_data_pos@data^0,c
  1448   001FF0  0E10               	movlw	high STR_7
  1449   001FF2  6E29               	movwf	(send_4_bit_string_data_pos@data+1)^0,c
  1450   001FF4  ECA0  F01A         	call	_send_4_bit_string_data_pos	;wreg free
  1451   001FF8                     
  1452                           ;Fan_contraller.c: 134:              send_4_bit_string_data_pos(&lcd_4bit, 3, 1, "Full C
      +                          apacity");
  1453   001FF8  0EB3               	movlw	low _lcd_4bit
  1454   001FFA  6E24               	movwf	send_4_bit_string_data_pos@lcd^0,c
  1455   001FFC  0E00               	movlw	high _lcd_4bit
  1456   001FFE  6E25               	movwf	(send_4_bit_string_data_pos@lcd+1)^0,c
  1457   002000  0E03               	movlw	3
  1458   002002  6E26               	movwf	send_4_bit_string_data_pos@row^0,c
  1459   002004  0E01               	movlw	1
  1460   002006  6E27               	movwf	send_4_bit_string_data_pos@column^0,c
  1461   002008  0E1E               	movlw	low STR_14
  1462   00200A  6E28               	movwf	send_4_bit_string_data_pos@data^0,c
  1463   00200C  0E10               	movlw	high STR_14
  1464   00200E  6E29               	movwf	(send_4_bit_string_data_pos@data+1)^0,c
  1465   002010  ECA0  F01A         	call	_send_4_bit_string_data_pos	;wreg free
  1466                           
  1467                           ;Fan_contraller.c: 135:          }
  1468   002014  EF83  F00E         	goto	l5731
  1469   002018                     l645:
  1470   002018  EF83  F00E         	goto	l5731
  1471   00201C  EF07  F000         	goto	start
  1472   002020                     __end_of_main:
  1473                           	callstack 0
  1474                           
  1475 ;; *************** function _send_4_bit_string_data_pos *****************
  1476 ;; Defined at:
  1477 ;;		line 111 in file "ECU_layer/LCD/ecu_lcd.c"
  1478 ;; Parameters:    Size  Location     Type
  1479 ;;  lcd             2   35[COMRAM] PTR const struct .
  1480 ;;		 -> lcd_4bit(6), 
  1481 ;;  row             1   37[COMRAM] unsigned char 
  1482 ;;  column          1   38[COMRAM] unsigned char 
  1483 ;;  data            2   39[COMRAM] PTR unsigned char 
  1484 ;;		 -> STR_14(14), STR_13(13), STR_12(14), STR_11(13), 
  1485 ;;		 -> STR_10(13), STR_9(13), STR_8(13), STR_7(13), 
  1486 ;;		 -> STR_6(13), STR_5(13), STR_4(15), arr_val(6), 
  1487 ;; Auto vars:     Size  Location     Type
  1488 ;;  ret             1    0        unsigned char 
  1489 ;; Return value:  Size  Location     Type
  1490 ;;                  1    wreg      unsigned char 
  1491 ;; Registers used:
  1492 ;;		wreg, fsr1l, fsr1h, fsr2l, fsr2h, status,2, status,0, tblptrl, tblptrh, tblptru, prodl, prodh, cstack
  1493 ;; Tracked objects:
  1494 ;;		On entry : 0/0
  1495 ;;		On exit  : 0/0
  1496 ;;		Unchanged: 0/0
  1497 ;; Data sizes:     COMRAM   BANK0   BANK1   BANK2   BANK3   BANK4   BANK5   BANK6   BANK7   BANK8   BANK9  BANK10  BANK1
      +1  BANK12  BANK13  BANK14  BANK15
  1498 ;;      Params:         6       0       0       0       0       0       0       0       0       0       0       0       
      +0       0       0       0       0
  1499 ;;      Locals:         0       0       0       0       0       0       0       0       0       0       0       0       
      +0       0       0       0       0
  1500 ;;      Temps:          0       0       0       0       0       0       0       0       0       0       0       0       
      +0       0       0       0       0
  1501 ;;      Totals:         6       0       0       0       0       0       0       0       0       0       0       0       
      +0       0       0       0       0
  1502 ;;Total ram usage:        6 bytes
  1503 ;; Hardware stack levels used: 1
  1504 ;; Hardware stack levels required when called: 8
  1505 ;; This function calls:
  1506 ;;		_lcd_4_bit_set_cursor
  1507 ;;		_send_4_bit_char_data
  1508 ;; This function is called by:
  1509 ;;		_main
  1510 ;; This function uses a non-reentrant model
  1511 ;;
  1512                           
  1513                           	psect	text1
  1514   003540                     __ptext1:
  1515                           	callstack 0
  1516   003540                     _send_4_bit_string_data_pos:
  1517                           	callstack 22
  1518   003540                     
  1519                           ;ECU_layer/LCD/ecu_lcd.c: 114:     if(((void*)0) == lcd)
  1520   003540  5024               	movf	send_4_bit_string_data_pos@lcd^0,w,c
  1521   003542  1025               	iorwf	(send_4_bit_string_data_pos@lcd+1)^0,w,c
  1522   003544  A4D8               	btfss	status,2,c
  1523   003546  EFA7  F01A         	goto	u4791
  1524   00354A  EFA9  F01A         	goto	u4790
  1525   00354E                     u4791:
  1526   00354E  EFAB  F01A         	goto	l4605
  1527   003552                     u4790:
  1528   003552  EFEA  F01A         	goto	l67
  1529   003556                     l4605:
  1530   003556  C024  F01F         	movff	send_4_bit_string_data_pos@lcd,lcd_4_bit_set_cursor@lcd
  1531   00355A  C025  F020         	movff	send_4_bit_string_data_pos@lcd+1,lcd_4_bit_set_cursor@lcd+1
  1532   00355E  C026  F021         	movff	send_4_bit_string_data_pos@row,lcd_4_bit_set_cursor@row
  1533   003562  C027  F022         	movff	send_4_bit_string_data_pos@column,lcd_4_bit_set_cursor@column
  1534   003566  EC62  F018         	call	_lcd_4_bit_set_cursor	;wreg free
  1535                           
  1536                           ;ECU_layer/LCD/ecu_lcd.c: 119:       while(*data){
  1537   00356A  EFD1  F01A         	goto	l4611
  1538   00356E                     l4607:
  1539   00356E  C024  F01B         	movff	send_4_bit_string_data_pos@lcd,send_4_bit_char_data@lcd
  1540   003572  C025  F01C         	movff	send_4_bit_string_data_pos@lcd+1,send_4_bit_char_data@lcd+1
  1541   003576  C028  FFF6         	movff	send_4_bit_string_data_pos@data,tblptrl
  1542   00357A  C029  FFF7         	movff	send_4_bit_string_data_pos@data+1,tblptrh
  1543   00357E  0E00               	movlw	low (__smallconst shr (0+16))
  1544   003580  6EF8               	movwf	tblptru,c
  1545   003582  0E0F               	movlw	(high __ramtop+-1)
  1546   003584  64F7               	cpfsgt	tblptrh,c
  1547   003586  D003               	bra	u4807
  1548   003588  0008               	tblrd		*
  1549   00358A  50F5               	movf	tablat,w,c
  1550   00358C  D005               	bra	u4800
  1551   00358E                     u4807:
  1552   00358E  CFF6 FFE1          	movff	tblptrl,fsr1l
  1553   003592  CFF7 FFE2          	movff	tblptrh,fsr1h
  1554   003596  50E7               	movf	indf1,w,c
  1555   003598                     u4800:
  1556   003598  6E1D               	movwf	send_4_bit_char_data@data^0,c
  1557   00359A  EC6C  F01B         	call	_send_4_bit_char_data	;wreg free
  1558   00359E  4A28               	infsnz	send_4_bit_string_data_pos@data^0,f,c
  1559   0035A0  2A29               	incf	(send_4_bit_string_data_pos@data+1)^0,f,c
  1560   0035A2                     l4611:
  1561                           
  1562                           ;ECU_layer/LCD/ecu_lcd.c: 119:       while(*data){
  1563   0035A2  C028  FFF6         	movff	send_4_bit_string_data_pos@data,tblptrl
  1564   0035A6  C029  FFF7         	movff	send_4_bit_string_data_pos@data+1,tblptrh
  1565   0035AA  0E00               	movlw	low (__smallconst shr (0+16))
  1566   0035AC  6EF8               	movwf	tblptru,c
  1567   0035AE  0E0F               	movlw	(high __ramtop+-1)
  1568   0035B0  64F7               	cpfsgt	tblptrh,c
  1569   0035B2  D003               	bra	u4817
  1570   0035B4  0008               	tblrd		*
  1571   0035B6  50F5               	movf	tablat,w,c
  1572   0035B8  D005               	bra	u4810
  1573   0035BA                     u4817:
  1574   0035BA  CFF6 FFE1          	movff	tblptrl,fsr1l
  1575   0035BE  CFF7 FFE2          	movff	tblptrh,fsr1h
  1576   0035C2  50E7               	movf	indf1,w,c
  1577   0035C4                     u4810:
  1578   0035C4  0900               	iorlw	0
  1579   0035C6  A4D8               	btfss	status,2,c
  1580   0035C8  EFE8  F01A         	goto	u4821
  1581   0035CC  EFEA  F01A         	goto	u4820
  1582   0035D0                     u4821:
  1583   0035D0  EFB7  F01A         	goto	l4607
  1584   0035D4                     u4820:
  1585   0035D4                     l67:
  1586   0035D4  0012               	return		;funcret
  1587   0035D6                     __end_of_send_4_bit_string_data_pos:
  1588                           	callstack 0
  1589                           
  1590 ;; *************** function _send_4_bit_char_data *****************
  1591 ;; Defined at:
  1592 ;;		line 61 in file "ECU_layer/LCD/ecu_lcd.c"
  1593 ;; Parameters:    Size  Location     Type
  1594 ;;  lcd             2   26[COMRAM] PTR const struct .
  1595 ;;		 -> lcd_4bit(6), 
  1596 ;;  data            1   28[COMRAM] unsigned char 
  1597 ;; Auto vars:     Size  Location     Type
  1598 ;;  ret             1   29[COMRAM] unsigned char 
  1599 ;; Return value:  Size  Location     Type
  1600 ;;                  1    wreg      unsigned char 
  1601 ;; Registers used:
  1602 ;;		wreg, fsr2l, fsr2h, status,2, status,0, prodl, prodh, cstack
  1603 ;; Tracked objects:
  1604 ;;		On entry : 0/0
  1605 ;;		On exit  : 0/0
  1606 ;;		Unchanged: 0/0
  1607 ;; Data sizes:     COMRAM   BANK0   BANK1   BANK2   BANK3   BANK4   BANK5   BANK6   BANK7   BANK8   BANK9  BANK10  BANK1
      +1  BANK12  BANK13  BANK14  BANK15
  1608 ;;      Params:         3       0       0       0       0       0       0       0       0       0       0       0       
      +0       0       0       0       0
  1609 ;;      Locals:         1       0       0       0       0       0       0       0       0       0       0       0       
      +0       0       0       0       0
  1610 ;;      Temps:          0       0       0       0       0       0       0       0       0       0       0       0       
      +0       0       0       0       0
  1611 ;;      Totals:         4       0       0       0       0       0       0       0       0       0       0       0       
      +0       0       0       0       0
  1612 ;;Total ram usage:        4 bytes
  1613 ;; Hardware stack levels used: 1
  1614 ;; Hardware stack levels required when called: 6
  1615 ;; This function calls:
  1616 ;;		_gpio_pin_write_logic
  1617 ;;		_send_4_bit_enable
  1618 ;;		_send_4_bit_help
  1619 ;; This function is called by:
  1620 ;;		_send_4_bit_string_data_pos
  1621 ;;		_main
  1622 ;;		_send_4_bit_char_data_pos
  1623 ;;		_send_4_bit_string_data
  1624 ;;		_send_4_bit_custome_char_data_pos
  1625 ;; This function uses a non-reentrant model
  1626 ;;
  1627                           
  1628                           	psect	text2
  1629   0036D8                     __ptext2:
  1630                           	callstack 0
  1631   0036D8                     _send_4_bit_char_data:
  1632                           	callstack 23
  1633   0036D8                     
  1634                           ;ECU_layer/LCD/ecu_lcd.c: 63:     if(((void*)0) == lcd)
  1635   0036D8  501B               	movf	send_4_bit_char_data@lcd^0,w,c
  1636   0036DA  101C               	iorwf	(send_4_bit_char_data@lcd+1)^0,w,c
  1637   0036DC  A4D8               	btfss	status,2,c
  1638   0036DE  EF73  F01B         	goto	u4431
  1639   0036E2  EF75  F01B         	goto	u4430
  1640   0036E6                     u4431:
  1641   0036E6  EF79  F01B         	goto	l4327
  1642   0036EA                     u4430:
  1643   0036EA                     
  1644                           ;ECU_layer/LCD/ecu_lcd.c: 64:         ret = (Std_ReturnType)0x00;
  1645   0036EA  0E00               	movlw	0
  1646   0036EC  6E1E               	movwf	send_4_bit_char_data@ret^0,c
  1647   0036EE  EFA3  F01B         	goto	l4329
  1648   0036F2                     l4327:
  1649                           
  1650                           ;ECU_layer/LCD/ecu_lcd.c: 66:     {;ECU_layer/LCD/ecu_lcd.c: 67:         ret = gpio_pin_
      +                          write_logic(&(lcd->rs_lcd),HIGH);
  1651   0036F2  C01B  F00D         	movff	send_4_bit_char_data@lcd,gpio_pin_write_logic@Pin_Config
  1652   0036F6  C01C  F00E         	movff	send_4_bit_char_data@lcd+1,gpio_pin_write_logic@Pin_Config+1
  1653   0036FA  0E01               	movlw	1
  1654   0036FC  6E0F               	movwf	gpio_pin_write_logic@logic^0,c
  1655   0036FE  EC50  F017         	call	_gpio_pin_write_logic	;wreg free
  1656   003702  6E1E               	movwf	send_4_bit_char_data@ret^0,c
  1657                           
  1658                           ;ECU_layer/LCD/ecu_lcd.c: 68:         ret = send_4_bit_help(lcd,data >> 4);
  1659   003704  C01B  F017         	movff	send_4_bit_char_data@lcd,send_4_bit_help@lcd
  1660   003708  C01C  F018         	movff	send_4_bit_char_data@lcd+1,send_4_bit_help@lcd+1
  1661   00370C  381D               	swapf	send_4_bit_char_data@data^0,w,c
  1662   00370E  0B0F               	andlw	15
  1663   003710  6E19               	movwf	send_4_bit_help@data_command^0,c
  1664   003712  ECEB  F01A         	call	_send_4_bit_help	;wreg free
  1665   003716  6E1E               	movwf	send_4_bit_char_data@ret^0,c
  1666                           
  1667                           ;ECU_layer/LCD/ecu_lcd.c: 69:         ret = send_4_bit_enable(lcd);
  1668   003718  C01B  F017         	movff	send_4_bit_char_data@lcd,send_4_bit_enable@lcd
  1669   00371C  C01C  F018         	movff	send_4_bit_char_data@lcd+1,send_4_bit_enable@lcd+1
  1670   003720  EC63  F01C         	call	_send_4_bit_enable	;wreg free
  1671   003724  6E1E               	movwf	send_4_bit_char_data@ret^0,c
  1672                           
  1673                           ;ECU_layer/LCD/ecu_lcd.c: 70:         ret = send_4_bit_help(lcd,data);
  1674   003726  C01B  F017         	movff	send_4_bit_char_data@lcd,send_4_bit_help@lcd
  1675   00372A  C01C  F018         	movff	send_4_bit_char_data@lcd+1,send_4_bit_help@lcd+1
  1676   00372E  C01D  F019         	movff	send_4_bit_char_data@data,send_4_bit_help@data_command
  1677   003732  ECEB  F01A         	call	_send_4_bit_help	;wreg free
  1678   003736  6E1E               	movwf	send_4_bit_char_data@ret^0,c
  1679                           
  1680                           ;ECU_layer/LCD/ecu_lcd.c: 71:         ret = send_4_bit_enable(lcd);
  1681   003738  C01B  F017         	movff	send_4_bit_char_data@lcd,send_4_bit_enable@lcd
  1682   00373C  C01C  F018         	movff	send_4_bit_char_data@lcd+1,send_4_bit_enable@lcd+1
  1683   003740  EC63  F01C         	call	_send_4_bit_enable	;wreg free
  1684   003744  6E1E               	movwf	send_4_bit_char_data@ret^0,c
  1685   003746                     l4329:
  1686                           
  1687                           ;ECU_layer/LCD/ecu_lcd.c: 73:              return ret;
  1688   003746  501E               	movf	send_4_bit_char_data@ret^0,w,c
  1689   003748  0012               	return		;funcret
  1690   00374A                     __end_of_send_4_bit_char_data:
  1691                           	callstack 0
  1692                           
  1693 ;; *************** function _lcd_4_bit_set_cursor *****************
  1694 ;; Defined at:
  1695 ;;		line 139 in file "ECU_layer/LCD/ecu_lcd.c"
  1696 ;; Parameters:    Size  Location     Type
  1697 ;;  lcd             2   30[COMRAM] PTR const struct .
  1698 ;;		 -> lcd_4bit(6), 
  1699 ;;  row             1   32[COMRAM] unsigned char 
  1700 ;;  column          1   33[COMRAM] unsigned char 
  1701 ;; Auto vars:     Size  Location     Type
  1702 ;;  ret             1   34[COMRAM] unsigned char 
  1703 ;; Return value:  Size  Location     Type
  1704 ;;                  1    wreg      unsigned char 
  1705 ;; Registers used:
  1706 ;;		wreg, fsr2l, fsr2h, status,2, status,0, prodl, prodh, cstack
  1707 ;; Tracked objects:
  1708 ;;		On entry : 0/0
  1709 ;;		On exit  : 0/0
  1710 ;;		Unchanged: 0/0
  1711 ;; Data sizes:     COMRAM   BANK0   BANK1   BANK2   BANK3   BANK4   BANK5   BANK6   BANK7   BANK8   BANK9  BANK10  BANK1
      +1  BANK12  BANK13  BANK14  BANK15
  1712 ;;      Params:         4       0       0       0       0       0       0       0       0       0       0       0       
      +0       0       0       0       0
  1713 ;;      Locals:         1       0       0       0       0       0       0       0       0       0       0       0       
      +0       0       0       0       0
  1714 ;;      Temps:          0       0       0       0       0       0       0       0       0       0       0       0       
      +0       0       0       0       0
  1715 ;;      Totals:         5       0       0       0       0       0       0       0       0       0       0       0       
      +0       0       0       0       0
  1716 ;;Total ram usage:        5 bytes
  1717 ;; Hardware stack levels used: 1
  1718 ;; Hardware stack levels required when called: 7
  1719 ;; This function calls:
  1720 ;;		_send_4_bit_command
  1721 ;; This function is called by:
  1722 ;;		_send_4_bit_string_data_pos
  1723 ;;		_send_4_bit_char_data_pos
  1724 ;; This function uses a non-reentrant model
  1725 ;;
  1726                           
  1727                           	psect	text3
  1728   0030C4                     __ptext3:
  1729                           	callstack 0
  1730   0030C4                     _lcd_4_bit_set_cursor:
  1731                           	callstack 22
  1732   0030C4                     
  1733                           ;ECU_layer/LCD/ecu_lcd.c: 140:                     Std_ReturnType ret = (Std_ReturnType)
      +                          0x01;
  1734   0030C4  0E01               	movlw	1
  1735   0030C6  6E23               	movwf	lcd_4_bit_set_cursor@ret^0,c
  1736   0030C8                     
  1737                           ;ECU_layer/LCD/ecu_lcd.c: 141:                  column--;
  1738   0030C8  0622               	decf	lcd_4_bit_set_cursor@column^0,f,c
  1739   0030CA                     
  1740                           ;ECU_layer/LCD/ecu_lcd.c: 142:     if(((void*)0) == lcd)
  1741   0030CA  501F               	movf	lcd_4_bit_set_cursor@lcd^0,w,c
  1742   0030CC  1020               	iorwf	(lcd_4_bit_set_cursor@lcd+1)^0,w,c
  1743   0030CE  A4D8               	btfss	status,2,c
  1744   0030D0  EF6C  F018         	goto	u4441
  1745   0030D4  EF6E  F018         	goto	u4440
  1746   0030D8                     u4441:
  1747   0030D8  EF72  F018         	goto	l4341
  1748   0030DC                     u4440:
  1749   0030DC                     
  1750                           ;ECU_layer/LCD/ecu_lcd.c: 143:         ret = (Std_ReturnType)0x00;
  1751   0030DC  0E00               	movlw	0
  1752   0030DE  6E23               	movwf	lcd_4_bit_set_cursor@ret^0,c
  1753   0030E0  EFC5  F018         	goto	l4357
  1754   0030E4                     l4341:
  1755                           
  1756                           ;ECU_layer/LCD/ecu_lcd.c: 145:     {;ECU_layer/LCD/ecu_lcd.c: 146:         if(row == 1)
  1757   0030E4  0421               	decf	lcd_4_bit_set_cursor@row^0,w,c
  1758   0030E6  A4D8               	btfss	status,2,c
  1759   0030E8  EF78  F018         	goto	u4451
  1760   0030EC  EF7A  F018         	goto	u4450
  1761   0030F0                     u4451:
  1762   0030F0  EF86  F018         	goto	l4345
  1763   0030F4                     u4450:
  1764   0030F4                     
  1765                           ;ECU_layer/LCD/ecu_lcd.c: 147:         {;ECU_layer/LCD/ecu_lcd.c: 148:             ret =
      +                           send_4_bit_command(lcd,(0x80 + column));
  1766   0030F4  C01F  F01B         	movff	lcd_4_bit_set_cursor@lcd,send_4_bit_command@lcd
  1767   0030F8  C020  F01C         	movff	lcd_4_bit_set_cursor@lcd+1,send_4_bit_command@lcd+1
  1768   0030FC  5022               	movf	lcd_4_bit_set_cursor@column^0,w,c
  1769   0030FE  0F80               	addlw	128
  1770   003100  6E1D               	movwf	send_4_bit_command@command^0,c
  1771   003102  ECA5  F01B         	call	_send_4_bit_command	;wreg free
  1772   003106  6E23               	movwf	lcd_4_bit_set_cursor@ret^0,c
  1773                           
  1774                           ;ECU_layer/LCD/ecu_lcd.c: 149:         }
  1775   003108  EFC5  F018         	goto	l4357
  1776   00310C                     l4345:
  1777   00310C  0E02               	movlw	2
  1778   00310E  1821               	xorwf	lcd_4_bit_set_cursor@row^0,w,c
  1779   003110  A4D8               	btfss	status,2,c
  1780   003112  EF8D  F018         	goto	u4461
  1781   003116  EF8F  F018         	goto	u4460
  1782   00311A                     u4461:
  1783   00311A  EF9B  F018         	goto	l4349
  1784   00311E                     u4460:
  1785   00311E                     
  1786                           ;ECU_layer/LCD/ecu_lcd.c: 151:         {;ECU_layer/LCD/ecu_lcd.c: 152:             ret =
      +                           send_4_bit_command(lcd,(0xC0 + column));
  1787   00311E  C01F  F01B         	movff	lcd_4_bit_set_cursor@lcd,send_4_bit_command@lcd
  1788   003122  C020  F01C         	movff	lcd_4_bit_set_cursor@lcd+1,send_4_bit_command@lcd+1
  1789   003126  5022               	movf	lcd_4_bit_set_cursor@column^0,w,c
  1790   003128  0FC0               	addlw	192
  1791   00312A  6E1D               	movwf	send_4_bit_command@command^0,c
  1792   00312C  ECA5  F01B         	call	_send_4_bit_command	;wreg free
  1793   003130  6E23               	movwf	lcd_4_bit_set_cursor@ret^0,c
  1794                           
  1795                           ;ECU_layer/LCD/ecu_lcd.c: 153:         }
  1796   003132  EFC5  F018         	goto	l4357
  1797   003136                     l4349:
  1798   003136  0E03               	movlw	3
  1799   003138  1821               	xorwf	lcd_4_bit_set_cursor@row^0,w,c
  1800   00313A  A4D8               	btfss	status,2,c
  1801   00313C  EFA2  F018         	goto	u4471
  1802   003140  EFA4  F018         	goto	u4470
  1803   003144                     u4471:
  1804   003144  EFB0  F018         	goto	l4353
  1805   003148                     u4470:
  1806   003148                     
  1807                           ;ECU_layer/LCD/ecu_lcd.c: 155:             ret = send_4_bit_command(lcd,(0x94 + column))
      +                          ;
  1808   003148  C01F  F01B         	movff	lcd_4_bit_set_cursor@lcd,send_4_bit_command@lcd
  1809   00314C  C020  F01C         	movff	lcd_4_bit_set_cursor@lcd+1,send_4_bit_command@lcd+1
  1810   003150  5022               	movf	lcd_4_bit_set_cursor@column^0,w,c
  1811   003152  0F94               	addlw	148
  1812   003154  6E1D               	movwf	send_4_bit_command@command^0,c
  1813   003156  ECA5  F01B         	call	_send_4_bit_command	;wreg free
  1814   00315A  6E23               	movwf	lcd_4_bit_set_cursor@ret^0,c
  1815                           
  1816                           ;ECU_layer/LCD/ecu_lcd.c: 156:         }
  1817   00315C  EFC5  F018         	goto	l4357
  1818   003160                     l4353:
  1819   003160  0E04               	movlw	4
  1820   003162  1821               	xorwf	lcd_4_bit_set_cursor@row^0,w,c
  1821   003164  A4D8               	btfss	status,2,c
  1822   003166  EFB7  F018         	goto	u4481
  1823   00316A  EFB9  F018         	goto	u4480
  1824   00316E                     u4481:
  1825   00316E  EFC5  F018         	goto	l78
  1826   003172                     u4480:
  1827   003172                     
  1828                           ;ECU_layer/LCD/ecu_lcd.c: 158:             ret = send_4_bit_command(lcd,(0xD4 + column))
      +                          ;
  1829   003172  C01F  F01B         	movff	lcd_4_bit_set_cursor@lcd,send_4_bit_command@lcd
  1830   003176  C020  F01C         	movff	lcd_4_bit_set_cursor@lcd+1,send_4_bit_command@lcd+1
  1831   00317A  5022               	movf	lcd_4_bit_set_cursor@column^0,w,c
  1832   00317C  0FD4               	addlw	212
  1833   00317E  6E1D               	movwf	send_4_bit_command@command^0,c
  1834   003180  ECA5  F01B         	call	_send_4_bit_command	;wreg free
  1835   003184  6E23               	movwf	lcd_4_bit_set_cursor@ret^0,c
  1836   003186  EFC5  F018         	goto	l4357
  1837   00318A                     l78:
  1838   00318A                     l4357:
  1839                           
  1840                           ;ECU_layer/LCD/ecu_lcd.c: 162:         return ret;
  1841   00318A  5023               	movf	lcd_4_bit_set_cursor@ret^0,w,c
  1842   00318C  0012               	return		;funcret
  1843   00318E                     __end_of_lcd_4_bit_set_cursor:
  1844                           	callstack 0
  1845                           
  1846 ;; *************** function _motor_move_right *****************
  1847 ;; Defined at:
  1848 ;;		line 27 in file "ECU_layer/Motor/ecu_motor.c"
  1849 ;; Parameters:    Size  Location     Type
  1850 ;;  motor           2   22[COMRAM] PTR const struct .
  1851 ;;		 -> motor(2), 
  1852 ;; Auto vars:     Size  Location     Type
  1853 ;;  ret             1    0        unsigned char 
  1854 ;; Return value:  Size  Location     Type
  1855 ;;                  1    wreg      unsigned char 
  1856 ;; Registers used:
  1857 ;;		wreg, fsr2l, fsr2h, status,2, status,0, prodl, prodh, cstack
  1858 ;; Tracked objects:
  1859 ;;		On entry : 0/0
  1860 ;;		On exit  : 0/0
  1861 ;;		Unchanged: 0/0
  1862 ;; Data sizes:     COMRAM   BANK0   BANK1   BANK2   BANK3   BANK4   BANK5   BANK6   BANK7   BANK8   BANK9  BANK10  BANK1
      +1  BANK12  BANK13  BANK14  BANK15
  1863 ;;      Params:         2       0       0       0       0       0       0       0       0       0       0       0       
      +0       0       0       0       0
  1864 ;;      Locals:         0       0       0       0       0       0       0       0       0       0       0       0       
      +0       0       0       0       0
  1865 ;;      Temps:          0       0       0       0       0       0       0       0       0       0       0       0       
      +0       0       0       0       0
  1866 ;;      Totals:         2       0       0       0       0       0       0       0       0       0       0       0       
      +0       0       0       0       0
  1867 ;;Total ram usage:        2 bytes
  1868 ;; Hardware stack levels used: 1
  1869 ;; Hardware stack levels required when called: 5
  1870 ;; This function calls:
  1871 ;;		_gpio_pin_write_logic
  1872 ;; This function is called by:
  1873 ;;		_main
  1874 ;; This function uses a non-reentrant model
  1875 ;;
  1876                           
  1877                           	psect	text4
  1878   003AF6                     __ptext4:
  1879                           	callstack 0
  1880   003AF6                     _motor_move_right:
  1881                           	callstack 25
  1882   003AF6                     
  1883                           ;ECU_layer/Motor/ecu_motor.c: 29:     if(((void*)0) == motor)
  1884   003AF6  5017               	movf	motor_move_right@motor^0,w,c
  1885   003AF8  1018               	iorwf	(motor_move_right@motor+1)^0,w,c
  1886   003AFA  A4D8               	btfss	status,2,c
  1887   003AFC  EF82  F01D         	goto	u4861
  1888   003B00  EF84  F01D         	goto	u4860
  1889   003B04                     u4861:
  1890   003B04  EF86  F01D         	goto	l4647
  1891   003B08                     u4860:
  1892   003B08  EF98  F01D         	goto	l201
  1893   003B0C                     l4647:
  1894                           
  1895                           ;ECU_layer/Motor/ecu_motor.c: 32:         gpio_pin_write_logic(&(motor->motor_confg[0]),
      +                          LOW);
  1896   003B0C  C017  F00D         	movff	motor_move_right@motor,gpio_pin_write_logic@Pin_Config
  1897   003B10  C018  F00E         	movff	motor_move_right@motor+1,gpio_pin_write_logic@Pin_Config+1
  1898   003B14  0E00               	movlw	0
  1899   003B16  6E0F               	movwf	gpio_pin_write_logic@logic^0,c
  1900   003B18  EC50  F017         	call	_gpio_pin_write_logic	;wreg free
  1901                           
  1902                           ;ECU_layer/Motor/ecu_motor.c: 33:         gpio_pin_write_logic(&(motor->motor_confg[1]),
      +                          HIGH);
  1903   003B1C  0E01               	movlw	1
  1904   003B1E  2417               	addwf	motor_move_right@motor^0,w,c
  1905   003B20  6E0D               	movwf	gpio_pin_write_logic@Pin_Config^0,c
  1906   003B22  0E00               	movlw	0
  1907   003B24  2018               	addwfc	(motor_move_right@motor+1)^0,w,c
  1908   003B26  6E0E               	movwf	(gpio_pin_write_logic@Pin_Config+1)^0,c
  1909   003B28  0E01               	movlw	1
  1910   003B2A  6E0F               	movwf	gpio_pin_write_logic@logic^0,c
  1911   003B2C  EC50  F017         	call	_gpio_pin_write_logic	;wreg free
  1912   003B30                     l201:
  1913   003B30  0012               	return		;funcret
  1914   003B32                     __end_of_motor_move_right:
  1915                           	callstack 0
  1916                           
  1917 ;; *************** function _cnvert_uint8_to_string *****************
  1918 ;; Defined at:
  1919 ;;		line 338 in file "ECU_layer/LCD/ecu_lcd.c"
  1920 ;; Parameters:    Size  Location     Type
  1921 ;;  value           1    wreg     unsigned char 
  1922 ;;  str             2   94[COMRAM] PTR unsigned char 
  1923 ;;		 -> arr_val(6), 
  1924 ;; Auto vars:     Size  Location     Type
  1925 ;;  value           1  100[COMRAM] unsigned char 
  1926 ;;  Temp_String     4   96[COMRAM] unsigned char [4]
  1927 ;;  DataCounter     1  101[COMRAM] unsigned char 
  1928 ;;  ret             1    0        unsigned char 
  1929 ;; Return value:  Size  Location     Type
  1930 ;;                  1    wreg      unsigned char 
  1931 ;; Registers used:
  1932 ;;		wreg, fsr1l, fsr1h, fsr2l, fsr2h, status,2, status,0, tblptrl, tblptrh, tblptru, cstack
  1933 ;; Tracked objects:
  1934 ;;		On entry : 0/0
  1935 ;;		On exit  : 0/0
  1936 ;;		Unchanged: 0/0
  1937 ;; Data sizes:     COMRAM   BANK0   BANK1   BANK2   BANK3   BANK4   BANK5   BANK6   BANK7   BANK8   BANK9  BANK10  BANK1
      +1  BANK12  BANK13  BANK14  BANK15
  1938 ;;      Params:         2       0       0       0       0       0       0       0       0       0       0       0       
      +0       0       0       0       0
  1939 ;;      Locals:         6       0       0       0       0       0       0       0       0       0       0       0       
      +0       0       0       0       0
  1940 ;;      Temps:          0       0       0       0       0       0       0       0       0       0       0       0       
      +0       0       0       0       0
  1941 ;;      Totals:         8       0       0       0       0       0       0       0       0       0       0       0       
      +0       0       0       0       0
  1942 ;;Total ram usage:        8 bytes
  1943 ;; Hardware stack levels used: 1
  1944 ;; Hardware stack levels required when called: 12
  1945 ;; This function calls:
  1946 ;;		_memset
  1947 ;;		_sprintf
  1948 ;; This function is called by:
  1949 ;;		_main
  1950 ;; This function uses a non-reentrant model
  1951 ;;
  1952                           
  1953                           	psect	text5
  1954   0033E0                     __ptext5:
  1955                           	callstack 0
  1956   0033E0                     _cnvert_uint8_to_string:
  1957                           	callstack 18
  1958                           
  1959                           ;incstack = 0
  1960                           ;cnvert_uint8_to_string@value stored from wreg
  1961   0033E0  6E65               	movwf	cnvert_uint8_to_string@value^0,c
  1962   0033E2                     
  1963                           ;ECU_layer/LCD/ecu_lcd.c: 340:     uint8 Temp_String[4] = {0};
  1964   0033E2  0E00               	movlw	0
  1965   0033E4  6E61               	movwf	cnvert_uint8_to_string@Temp_String^0,c
  1966   0033E6  0E00               	movlw	0
  1967   0033E8  6E62               	movwf	(cnvert_uint8_to_string@Temp_String+1)^0,c
  1968   0033EA  0E00               	movlw	0
  1969   0033EC  6E63               	movwf	(cnvert_uint8_to_string@Temp_String+2)^0,c
  1970   0033EE  0E00               	movlw	0
  1971   0033F0  6E64               	movwf	(cnvert_uint8_to_string@Temp_String+3)^0,c
  1972                           
  1973                           ;ECU_layer/LCD/ecu_lcd.c: 341:     uint8 DataCounter = 0;
  1974   0033F2  0E00               	movlw	0
  1975   0033F4  6E66               	movwf	cnvert_uint8_to_string@DataCounter^0,c
  1976   0033F6                     
  1977                           ;ECU_layer/LCD/ecu_lcd.c: 342:     if(((void*)0) == str){
  1978   0033F6  505F               	movf	cnvert_uint8_to_string@str^0,w,c
  1979   0033F8  1060               	iorwf	(cnvert_uint8_to_string@str+1)^0,w,c
  1980   0033FA  A4D8               	btfss	status,2,c
  1981   0033FC  EF02  F01A         	goto	u4841
  1982   003400  EF04  F01A         	goto	u4840
  1983   003404                     u4841:
  1984   003404  EF06  F01A         	goto	l4629
  1985   003408                     u4840:
  1986   003408                     
  1987                           ;ECU_layer/LCD/ecu_lcd.c: 344:     }
  1988   003408  EF47  F01A         	goto	l167
  1989   00340C                     l4629:
  1990                           
  1991                           ;ECU_layer/LCD/ecu_lcd.c: 346:         memset(str, ' ', 3);
  1992   00340C  C05F  F00D         	movff	cnvert_uint8_to_string@str,memset@dest
  1993   003410  C060  F00E         	movff	cnvert_uint8_to_string@str+1,memset@dest+1
  1994   003414  0E00               	movlw	0
  1995   003416  6E10               	movwf	(memset@c+1)^0,c
  1996   003418  0E20               	movlw	32
  1997   00341A  6E0F               	movwf	memset@c^0,c
  1998   00341C  0E00               	movlw	0
  1999   00341E  6E12               	movwf	(memset@n+1)^0,c
  2000   003420  0E03               	movlw	3
  2001   003422  6E11               	movwf	memset@n^0,c
  2002   003424  ECF2  F012         	call	_memset	;wreg free
  2003   003428                     
  2004                           ;ECU_layer/LCD/ecu_lcd.c: 347:         str[3] = '\0';
  2005   003428  EE20 F003          	lfsr	2,3
  2006   00342C  505F               	movf	cnvert_uint8_to_string@str^0,w,c
  2007   00342E  26D9               	addwf	fsr2l,f,c
  2008   003430  5060               	movf	(cnvert_uint8_to_string@str+1)^0,w,c
  2009   003432  22DA               	addwfc	fsr2h,f,c
  2010   003434  6ADF               	clrf	indf2,c
  2011   003436                     
  2012                           ;ECU_layer/LCD/ecu_lcd.c: 348:         sprintf((char *)Temp_String, "%i", value);
  2013   003436  0E61               	movlw	low cnvert_uint8_to_string@Temp_String
  2014   003438  6E4B               	movwf	sprintf@s^0,c
  2015   00343A  0E00               	movlw	high cnvert_uint8_to_string@Temp_String
  2016   00343C  6E4C               	movwf	(sprintf@s+1)^0,c
  2017   00343E  0E6D               	movlw	low STR_1
  2018   003440  6E4D               	movwf	sprintf@fmt^0,c
  2019   003442  0E10               	movlw	high STR_1
  2020   003444  6E4E               	movwf	(sprintf@fmt+1)^0,c
  2021   003446  C065  F04F         	movff	cnvert_uint8_to_string@value,?_sprintf+4
  2022   00344A  6A50               	clrf	(?_sprintf+5)^0,c
  2023   00344C  EC8A  F01C         	call	_sprintf	;wreg free
  2024                           
  2025                           ;ECU_layer/LCD/ecu_lcd.c: 349:         while(Temp_String[DataCounter] != '\0'){
  2026   003450  EF39  F01A         	goto	l4639
  2027   003454                     l4635:
  2028                           
  2029                           ;ECU_layer/LCD/ecu_lcd.c: 350:             str[DataCounter] = Temp_String[DataCounter];
  2030   003454  0E61               	movlw	low cnvert_uint8_to_string@Temp_String
  2031   003456  2466               	addwf	cnvert_uint8_to_string@DataCounter^0,w,c
  2032   003458  6ED9               	movwf	fsr2l,c
  2033   00345A  6ADA               	clrf	fsr2h,c
  2034   00345C  0E00               	movlw	high cnvert_uint8_to_string@Temp_String
  2035   00345E  22DA               	addwfc	fsr2h,f,c
  2036   003460  5066               	movf	cnvert_uint8_to_string@DataCounter^0,w,c
  2037   003462  245F               	addwf	cnvert_uint8_to_string@str^0,w,c
  2038   003464  6EE1               	movwf	fsr1l,c
  2039   003466  0E00               	movlw	0
  2040   003468  2060               	addwfc	(cnvert_uint8_to_string@str+1)^0,w,c
  2041   00346A  6EE2               	movwf	fsr1h,c
  2042   00346C  CFDF FFE7          	movff	indf2,indf1
  2043   003470                     
  2044                           ;ECU_layer/LCD/ecu_lcd.c: 351:             DataCounter++;
  2045   003470  2A66               	incf	cnvert_uint8_to_string@DataCounter^0,f,c
  2046   003472                     l4639:
  2047                           
  2048                           ;ECU_layer/LCD/ecu_lcd.c: 349:         while(Temp_String[DataCounter] != '\0'){
  2049   003472  0E61               	movlw	low cnvert_uint8_to_string@Temp_String
  2050   003474  2466               	addwf	cnvert_uint8_to_string@DataCounter^0,w,c
  2051   003476  6ED9               	movwf	fsr2l,c
  2052   003478  6ADA               	clrf	fsr2h,c
  2053   00347A  0E00               	movlw	high cnvert_uint8_to_string@Temp_String
  2054   00347C  22DA               	addwfc	fsr2h,f,c
  2055   00347E  50DF               	movf	indf2,w,c
  2056   003480  A4D8               	btfss	status,2,c
  2057   003482  EF45  F01A         	goto	u4851
  2058   003486  EF47  F01A         	goto	u4850
  2059   00348A                     u4851:
  2060   00348A  EF2A  F01A         	goto	l4635
  2061   00348E                     u4850:
  2062   00348E                     l167:
  2063   00348E  0012               	return		;funcret
  2064   003490                     __end_of_cnvert_uint8_to_string:
  2065                           	callstack 0
  2066                           
  2067 ;; *************** function _sprintf *****************
  2068 ;; Defined at:
  2069 ;;		line 9 in file "C:\Program Files\Microchip\xc8\v2.41\pic\sources\c99\common\nf_sprintf.c"
  2070 ;; Parameters:    Size  Location     Type
  2071 ;;  s               2   74[COMRAM] PTR unsigned char 
  2072 ;;		 -> cnvert_uint32_to_string@Temp_String(11), cnvert_uint16_to_string@Temp_String(6), cnvert_uint8_to_string@Temp_Str
      +ing(4), 
  2073 ;;  fmt             2   76[COMRAM] PTR const unsigned char 
  2074 ;;		 -> STR_3(3), STR_2(3), STR_1(3), 
  2075 ;; Auto vars:     Size  Location     Type
  2076 ;;  f              12   82[COMRAM] struct _IO_FILE
  2077 ;;  ap              2   80[COMRAM] PTR void [1]
  2078 ;;		 -> ?_sprintf(2), 
  2079 ;;  ret             2    0        int 
  2080 ;; Return value:  Size  Location     Type
  2081 ;;                  2   74[COMRAM] int 
  2082 ;; Registers used:
  2083 ;;		wreg, fsr1l, fsr1h, fsr2l, fsr2h, status,2, status,0, tblptrl, tblptrh, tblptru, cstack
  2084 ;; Tracked objects:
  2085 ;;		On entry : 0/0
  2086 ;;		On exit  : 0/0
  2087 ;;		Unchanged: 0/0
  2088 ;; Data sizes:     COMRAM   BANK0   BANK1   BANK2   BANK3   BANK4   BANK5   BANK6   BANK7   BANK8   BANK9  BANK10  BANK1
      +1  BANK12  BANK13  BANK14  BANK15
  2089 ;;      Params:         6       0       0       0       0       0       0       0       0       0       0       0       
      +0       0       0       0       0
  2090 ;;      Locals:        14       0       0       0       0       0       0       0       0       0       0       0       
      +0       0       0       0       0
  2091 ;;      Temps:          0       0       0       0       0       0       0       0       0       0       0       0       
      +0       0       0       0       0
  2092 ;;      Totals:        20       0       0       0       0       0       0       0       0       0       0       0       
      +0       0       0       0       0
  2093 ;;Total ram usage:       20 bytes
  2094 ;; Hardware stack levels used: 1
  2095 ;; Hardware stack levels required when called: 11
  2096 ;; This function calls:
  2097 ;;		_vfprintf
  2098 ;; This function is called by:
  2099 ;;		_cnvert_uint8_to_string
  2100 ;;		_cnvert_uint16_to_string
  2101 ;;		_cnvert_uint32_to_string
  2102 ;; This function uses a non-reentrant model
  2103 ;;
  2104                           
  2105                           	psect	text6
  2106   003914                     __ptext6:
  2107                           	callstack 0
  2108   003914                     _sprintf:
  2109                           	callstack 18
  2110   003914  0E4F               	movlw	low (?_sprintf+4)
  2111   003916  6E51               	movwf	sprintf@ap^0,c
  2112   003918  0E00               	movlw	high (?_sprintf+4)
  2113   00391A  6E52               	movwf	(sprintf@ap+1)^0,c
  2114   00391C  C04B  F053         	movff	sprintf@s,sprintf@f
  2115   003920  C04C  F054         	movff	sprintf@s+1,sprintf@f+1
  2116   003924  0E00               	movlw	0
  2117   003926  6E57               	movwf	(sprintf@f+4)^0,c
  2118   003928  0E00               	movlw	0
  2119   00392A  6E56               	movwf	(sprintf@f+3)^0,c
  2120   00392C  0E00               	movlw	0
  2121   00392E  6E5E               	movwf	(sprintf@f+11)^0,c
  2122   003930  0E00               	movlw	0
  2123   003932  6E5D               	movwf	(sprintf@f+10)^0,c
  2124   003934  0E53               	movlw	low sprintf@f
  2125   003936  6E43               	movwf	vfprintf@fp^0,c
  2126   003938  0E00               	movlw	high sprintf@f
  2127   00393A  6E44               	movwf	(vfprintf@fp+1)^0,c
  2128   00393C  C04D  F045         	movff	sprintf@fmt,vfprintf@fmt
  2129   003940  C04E  F046         	movff	sprintf@fmt+1,vfprintf@fmt+1
  2130   003944  0E51               	movlw	low sprintf@ap
  2131   003946  6E47               	movwf	vfprintf@ap^0,c
  2132   003948  0E00               	movlw	high sprintf@ap
  2133   00394A  6E48               	movwf	(vfprintf@ap+1)^0,c
  2134   00394C  EC14  F01C         	call	_vfprintf	;wreg free
  2135   003950  5056               	movf	(sprintf@f+3)^0,w,c
  2136   003952  244B               	addwf	sprintf@s^0,w,c
  2137   003954  6ED9               	movwf	fsr2l,c
  2138   003956  5057               	movf	(sprintf@f+4)^0,w,c
  2139   003958  204C               	addwfc	(sprintf@s+1)^0,w,c
  2140   00395A  6EDA               	movwf	fsr2h,c
  2141   00395C  6ADF               	clrf	indf2,c
  2142   00395E  0012               	return		;funcret
  2143   003960                     __end_of_sprintf:
  2144                           	callstack 0
  2145                           
  2146 ;; *************** function _vfprintf *****************
  2147 ;; Defined at:
  2148 ;;		line 1546 in file "C:\Program Files\Microchip\xc8\v2.41\pic\sources\c99\common\doprnt.c"
  2149 ;; Parameters:    Size  Location     Type
  2150 ;;  fp              2   66[COMRAM] PTR struct _IO_FILE
  2151 ;;		 -> sprintf@f(12), 
  2152 ;;  fmt             2   68[COMRAM] PTR const unsigned char 
  2153 ;;		 -> STR_3(3), STR_2(3), STR_1(3), 
  2154 ;;  ap              2   70[COMRAM] PTR PTR void 
  2155 ;;		 -> sprintf@ap(2), 
  2156 ;; Auto vars:     Size  Location     Type
  2157 ;;  cfmt            2   72[COMRAM] PTR unsigned char 
  2158 ;;		 -> STR_3(3), STR_2(3), STR_1(3), 
  2159 ;; Return value:  Size  Location     Type
  2160 ;;                  2   66[COMRAM] int 
  2161 ;; Registers used:
  2162 ;;		wreg, fsr1l, fsr1h, fsr2l, fsr2h, status,2, status,0, tblptrl, tblptrh, tblptru, cstack
  2163 ;; Tracked objects:
  2164 ;;		On entry : 0/0
  2165 ;;		On exit  : 0/0
  2166 ;;		Unchanged: 0/0
  2167 ;; Data sizes:     COMRAM   BANK0   BANK1   BANK2   BANK3   BANK4   BANK5   BANK6   BANK7   BANK8   BANK9  BANK10  BANK1
      +1  BANK12  BANK13  BANK14  BANK15
  2168 ;;      Params:         6       0       0       0       0       0       0       0       0       0       0       0       
      +0       0       0       0       0
  2169 ;;      Locals:         2       0       0       0       0       0       0       0       0       0       0       0       
      +0       0       0       0       0
  2170 ;;      Temps:          0       0       0       0       0       0       0       0       0       0       0       0       
      +0       0       0       0       0
  2171 ;;      Totals:         8       0       0       0       0       0       0       0       0       0       0       0       
      +0       0       0       0       0
  2172 ;;Total ram usage:        8 bytes
  2173 ;; Hardware stack levels used: 1
  2174 ;; Hardware stack levels required when called: 10
  2175 ;; This function calls:
  2176 ;;		_vfpfcnvrt
  2177 ;; This function is called by:
  2178 ;;		_sprintf
  2179 ;; This function uses a non-reentrant model
  2180 ;;
  2181                           
  2182                           	psect	text7
  2183   003828                     __ptext7:
  2184                           	callstack 0
  2185   003828                     _vfprintf:
  2186                           	callstack 18
  2187   003828                     
  2188                           ;C:\Program Files\Microchip\xc8\v2.41\pic\sources\c99\common\doprnt.c: 1546: int vfprint
      +                          f(FILE *fp, const char *fmt, va_list ap);C:\Program Files\Microchip\xc8\v2.41\pic\source
      +                          s\c99\common\doprnt.c: 1547: {;C:\Program Files\Microchip\xc8\v2.41\pic\sources\c99\comm
      +                          on\doprnt.c: 1549:     char *cfmt;;C:\Program Files\Microchip\xc8\v2.41\pic\sources\c99\
      +                          common\doprnt.c: 1551:     cfmt = (char *)fmt;
  2189   003828  C045  F049         	movff	vfprintf@fmt,vfprintf@cfmt
  2190   00382C  C046  F04A         	movff	vfprintf@fmt+1,vfprintf@cfmt+1
  2191                           
  2192                           ;C:\Program Files\Microchip\xc8\v2.41\pic\sources\c99\common\doprnt.c: 1555:     while (
      +                          *cfmt) {
  2193   003830  EF28  F01C         	goto	l4271
  2194   003834                     l4269:
  2195                           
  2196                           ;C:\Program Files\Microchip\xc8\v2.41\pic\sources\c99\common\doprnt.c: 1559:    vfpfcnvr
      +                          t(fp, &cfmt, ap);
  2197   003834  C043  F035         	movff	vfprintf@fp,vfpfcnvrt@fp
  2198   003838  C044  F036         	movff	vfprintf@fp+1,vfpfcnvrt@fp+1
  2199   00383C  0E49               	movlw	low vfprintf@cfmt
  2200   00383E  6E37               	movwf	vfpfcnvrt@fmt^0,c
  2201   003840  0E00               	movlw	high vfprintf@cfmt
  2202   003842  6E38               	movwf	(vfpfcnvrt@fmt+1)^0,c
  2203   003844  C047  F039         	movff	vfprintf@ap,vfpfcnvrt@ap
  2204   003848  C048  F03A         	movff	vfprintf@ap+1,vfpfcnvrt@ap+1
  2205   00384C  EC04  F015         	call	_vfpfcnvrt	;wreg free
  2206   003850                     l4271:
  2207                           
  2208                           ;C:\Program Files\Microchip\xc8\v2.41\pic\sources\c99\common\doprnt.c: 1555:     while (
      +                          *cfmt) {
  2209   003850  C049  FFF6         	movff	vfprintf@cfmt,tblptrl
  2210   003854  C04A  FFF7         	movff	vfprintf@cfmt+1,tblptrh
  2211   003858                     	if	1	;Program memory is < 0x10000, tblptru is always zero
  2212   003858  6AF8               	clrf	tblptru,c
  2213   00385A                     	endif
  2214   00385A                     	if	0	;tblptru may be non-zero
  2215   00385A                     	endif
  2216   00385A  0008               	tblrd		*
  2217   00385C  50F5               	movf	tablat,w,c
  2218   00385E  0900               	iorlw	0
  2219   003860  A4D8               	btfss	status,2,c
  2220   003862  EF35  F01C         	goto	u4401
  2221   003866  EF37  F01C         	goto	u4400
  2222   00386A                     u4401:
  2223   00386A  EF1A  F01C         	goto	l4269
  2224   00386E                     u4400:
  2225   00386E                     
  2226                           ;C:\Program Files\Microchip\xc8\v2.41\pic\sources\c99\common\doprnt.c: 1564:  return 0;
  2227   00386E  0E00               	movlw	0
  2228   003870  6E44               	movwf	(?_vfprintf+1)^0,c
  2229   003872  0E00               	movlw	0
  2230   003874  6E43               	movwf	?_vfprintf^0,c
  2231   003876  0012               	return		;funcret
  2232   003878                     __end_of_vfprintf:
  2233                           	callstack 0
  2234                           
  2235 ;; *************** function _vfpfcnvrt *****************
  2236 ;; Defined at:
  2237 ;;		line 1048 in file "C:\Program Files\Microchip\xc8\v2.41\pic\sources\c99\common\doprnt.c"
  2238 ;; Parameters:    Size  Location     Type
  2239 ;;  fp              2   52[COMRAM] PTR struct _IO_FILE
  2240 ;;		 -> sprintf@f(12), 
  2241 ;;  fmt             2   54[COMRAM] PTR PTR unsigned char 
  2242 ;;		 -> vfprintf@cfmt(2), 
  2243 ;;  ap              2   56[COMRAM] PTR PTR void 
  2244 ;;		 -> sprintf@ap(2), 
  2245 ;; Auto vars:     Size  Location     Type
  2246 ;;  convarg         4   60[COMRAM] struct .
  2247 ;;  cp              2   64[COMRAM] PTR unsigned char 
  2248 ;;		 -> STR_3(3), STR_2(3), STR_1(3), 
  2249 ;;  i               2    0        int 
  2250 ;;  done            2    0        int 
  2251 ;;  c               1    0        unsigned char 
  2252 ;; Return value:  Size  Location     Type
  2253 ;;                  1    wreg      void 
  2254 ;; Registers used:
  2255 ;;		wreg, fsr1l, fsr1h, fsr2l, fsr2h, status,2, status,0, tblptrl, tblptrh, tblptru, cstack
  2256 ;; Tracked objects:
  2257 ;;		On entry : 0/0
  2258 ;;		On exit  : 0/0
  2259 ;;		Unchanged: 0/0
  2260 ;; Data sizes:     COMRAM   BANK0   BANK1   BANK2   BANK3   BANK4   BANK5   BANK6   BANK7   BANK8   BANK9  BANK10  BANK1
      +1  BANK12  BANK13  BANK14  BANK15
  2261 ;;      Params:         6       0       0       0       0       0       0       0       0       0       0       0       
      +0       0       0       0       0
  2262 ;;      Locals:         6       0       0       0       0       0       0       0       0       0       0       0       
      +0       0       0       0       0
  2263 ;;      Temps:          2       0       0       0       0       0       0       0       0       0       0       0       
      +0       0       0       0       0
  2264 ;;      Totals:        14       0       0       0       0       0       0       0       0       0       0       0       
      +0       0       0       0       0
  2265 ;;Total ram usage:       14 bytes
  2266 ;; Hardware stack levels used: 1
  2267 ;; Hardware stack levels required when called: 9
  2268 ;; This function calls:
  2269 ;;		_dtoa
  2270 ;;		_fputc
  2271 ;; This function is called by:
  2272 ;;		_vfprintf
  2273 ;; This function uses a non-reentrant model
  2274 ;;
  2275                           
  2276                           	psect	text8
  2277   002A08                     __ptext8:
  2278                           	callstack 0
  2279   002A08                     _vfpfcnvrt:
  2280                           	callstack 18
  2281   002A08                     
  2282                           ;C:\Program Files\Microchip\xc8\v2.41\pic\sources\c99\common\doprnt.c: 1048: vfpfcnvrt(F
      +                          ILE *fp, char *fmt[], va_list ap);C:\Program Files\Microchip\xc8\v2.41\pic\sources\c99\c
      +                          ommon\doprnt.c: 1049: {;C:\Program Files\Microchip\xc8\v2.41\pic\sources\c99\common\dopr
      +                          nt.c: 1050:     char c, *cp;;C:\Program Files\Microchip\xc8\v2.41\pic\sources\c99\common
      +                          \doprnt.c: 1051:     int done, i;;C:\Program Files\Microchip\xc8\v2.41\pic\sources\c99\c
      +                          ommon\doprnt.c: 1059:  } convarg;;C:\Program Files\Microchip\xc8\v2.41\pic\sources\c99\c
      +                          ommon\doprnt.c: 1062:     if ((*fmt)[0] == '%') {
  2283   002A08  C037  FFD9         	movff	vfpfcnvrt@fmt,fsr2l
  2284   002A0C  C038  FFDA         	movff	vfpfcnvrt@fmt+1,fsr2h
  2285   002A10  CFDE FFF6          	movff	postinc2,tblptrl
  2286   002A14  CFDD FFF7          	movff	postdec2,tblptrh
  2287   002A18                     	if	1	;Program memory is < 0x10000, tblptru is always zero
  2288   002A18  6AF8               	clrf	tblptru,c
  2289   002A1A                     	endif
  2290   002A1A                     	if	0	;tblptru may be non-zero
  2291   002A1A                     	endif
  2292   002A1A  0008               	tblrd		*
  2293   002A1C  50F5               	movf	tablat,w,c
  2294   002A1E  0A25               	xorlw	37
  2295   002A20  A4D8               	btfss	status,2,c
  2296   002A22  EF15  F015         	goto	u4221
  2297   002A26  EF17  F015         	goto	u4220
  2298   002A2A                     u4221:
  2299   002A2A  EF84  F015         	goto	l4137
  2300   002A2E                     u4220:
  2301   002A2E                     
  2302                           ;C:\Program Files\Microchip\xc8\v2.41\pic\sources\c99\common\doprnt.c: 1063:         ++*
      +                          fmt;
  2303   002A2E  C037  FFD9         	movff	vfpfcnvrt@fmt,fsr2l
  2304   002A32  C038  FFDA         	movff	vfpfcnvrt@fmt+1,fsr2h
  2305   002A36  2ADE               	incf	postinc2,f,c
  2306   002A38  0E00               	movlw	0
  2307   002A3A  22DD               	addwfc	postdec2,f,c
  2308   002A3C                     
  2309                           ;C:\Program Files\Microchip\xc8\v2.41\pic\sources\c99\common\doprnt.c: 1065:         fla
      +                          gs = width = 0;
  2310   002A3C  0E00               	movlw	0
  2311   002A3E  0100               	movlb	0	; () banked
  2312   002A40  6FD1               	movwf	(_width+1)& (0+255),b
  2313   002A42  0E00               	movlw	0
  2314   002A44  6FD0               	movwf	_width& (0+255),b
  2315   002A46  C0D0  F070         	movff	_width,_flags
  2316   002A4A                     
  2317                           ; BSR set to: 0
  2318                           ;C:\Program Files\Microchip\xc8\v2.41\pic\sources\c99\common\doprnt.c: 1066:         pre
      +                          c = -1;
  2319   002A4A  6868               	setf	_prec^0,c
  2320   002A4C  6869               	setf	(_prec+1)^0,c
  2321   002A4E                     
  2322                           ; BSR set to: 0
  2323                           ;C:\Program Files\Microchip\xc8\v2.41\pic\sources\c99\common\doprnt.c: 1143:   cp = *fmt
      +                          ;
  2324   002A4E  C037  FFD9         	movff	vfpfcnvrt@fmt,fsr2l
  2325   002A52  C038  FFDA         	movff	vfpfcnvrt@fmt+1,fsr2h
  2326   002A56  CFDE F041          	movff	postinc2,vfpfcnvrt@cp
  2327   002A5A  CFDD F042          	movff	postdec2,vfpfcnvrt@cp+1
  2328   002A5E                     
  2329                           ; BSR set to: 0
  2330                           ;C:\Program Files\Microchip\xc8\v2.41\pic\sources\c99\common\doprnt.c: 1213:   if (*cp =
      +                          = 'd' || *cp == 'i') {
  2331   002A5E  C041  FFF6         	movff	vfpfcnvrt@cp,tblptrl
  2332   002A62  C042  FFF7         	movff	vfpfcnvrt@cp+1,tblptrh
  2333   002A66                     	if	1	;Program memory is < 0x10000, tblptru is always zero
  2334   002A66  6AF8               	clrf	tblptru,c
  2335   002A68                     	endif
  2336   002A68                     	if	0	;tblptru may be non-zero
  2337   002A68                     	endif
  2338   002A68  0008               	tblrd		*
  2339   002A6A  50F5               	movf	tablat,w,c
  2340   002A6C  0A64               	xorlw	100
  2341   002A6E  B4D8               	btfsc	status,2,c
  2342   002A70  EF3C  F015         	goto	u4231
  2343   002A74  EF3E  F015         	goto	u4230
  2344   002A78                     u4231:
  2345   002A78  EF4D  F015         	goto	l4127
  2346   002A7C                     u4230:
  2347   002A7C                     
  2348                           ; BSR set to: 0
  2349   002A7C  C041  FFF6         	movff	vfpfcnvrt@cp,tblptrl
  2350   002A80  C042  FFF7         	movff	vfpfcnvrt@cp+1,tblptrh
  2351   002A84                     	if	1	;Program memory is < 0x10000, tblptru is always zero
  2352   002A84  6AF8               	clrf	tblptru,c
  2353   002A86                     	endif
  2354   002A86                     	if	0	;tblptru may be non-zero
  2355   002A86                     	endif
  2356   002A86  0008               	tblrd		*
  2357   002A88  50F5               	movf	tablat,w,c
  2358   002A8A  0A69               	xorlw	105
  2359   002A8C  A4D8               	btfss	status,2,c
  2360   002A8E  EF4B  F015         	goto	u4241
  2361   002A92  EF4D  F015         	goto	u4240
  2362   002A96                     u4241:
  2363   002A96  EF7B  F015         	goto	l4133
  2364   002A9A                     u4240:
  2365   002A9A                     l4127:
  2366                           
  2367                           ; BSR set to: 0
  2368                           ;C:\Program Files\Microchip\xc8\v2.41\pic\sources\c99\common\doprnt.c: 1256:    convarg.
      +                          sint = (vfpf_sint_t)(int)(*(int *)__va_arg(*(int **)ap, (int)0));
  2369   002A9A  C039  FFD9         	movff	vfpfcnvrt@ap,fsr2l
  2370   002A9E  C03A  FFDA         	movff	vfpfcnvrt@ap+1,fsr2h
  2371   002AA2  CFDF F03B          	movff	indf2,??_vfpfcnvrt
  2372   002AA6  0E02               	movlw	2
  2373   002AA8  26DE               	addwf	postinc2,f,c
  2374   002AAA  CFDF F03C          	movff	indf2,??_vfpfcnvrt+1
  2375   002AAE  0E00               	movlw	0
  2376   002AB0  22DD               	addwfc	postdec2,f,c
  2377   002AB2  C03B  FFD9         	movff	??_vfpfcnvrt,fsr2l
  2378   002AB6  C03C  FFDA         	movff	??_vfpfcnvrt+1,fsr2h
  2379   002ABA  CFDE F03D          	movff	postinc2,vfpfcnvrt@convarg
  2380   002ABE  CFDD F03E          	movff	postdec2,vfpfcnvrt@convarg+1
  2381                           
  2382                           ;C:\Program Files\Microchip\xc8\v2.41\pic\sources\c99\common\doprnt.c: 1258:    *fmt = c
      +                          p+1;
  2383   002AC2  0E01               	movlw	1
  2384   002AC4  2441               	addwf	vfpfcnvrt@cp^0,w,c
  2385   002AC6  6E3B               	movwf	??_vfpfcnvrt^0,c
  2386   002AC8  0E00               	movlw	0
  2387   002ACA  2042               	addwfc	(vfpfcnvrt@cp+1)^0,w,c
  2388   002ACC  6E3C               	movwf	(??_vfpfcnvrt+1)^0,c
  2389   002ACE  C037  FFD9         	movff	vfpfcnvrt@fmt,fsr2l
  2390   002AD2  C038  FFDA         	movff	vfpfcnvrt@fmt+1,fsr2h
  2391   002AD6  C03B  FFDE         	movff	??_vfpfcnvrt,postinc2
  2392   002ADA  C03C  FFDD         	movff	??_vfpfcnvrt+1,postdec2
  2393   002ADE                     
  2394                           ; BSR set to: 0
  2395                           ;C:\Program Files\Microchip\xc8\v2.41\pic\sources\c99\common\doprnt.c: 1259:    return (
      +                          void) dtoa(fp, convarg.sint);;	Return value of _vfpfcnvrt is never used
  2396   002ADE  C035  F028         	movff	vfpfcnvrt@fp,dtoa@fp
  2397   002AE2  C036  F029         	movff	vfpfcnvrt@fp+1,dtoa@fp+1
  2398   002AE6  C03D  F02A         	movff	vfpfcnvrt@convarg,dtoa@d
  2399   002AEA  C03E  F02B         	movff	vfpfcnvrt@convarg+1,dtoa@d+1
  2400   002AEE  EC28  F012         	call	_dtoa	;wreg free
  2401   002AF2  EF99  F015         	goto	l1401
  2402   002AF6                     l4133:
  2403                           
  2404                           ;C:\Program Files\Microchip\xc8\v2.41\pic\sources\c99\common\doprnt.c: 1535:         ++*
      +                          fmt;
  2405   002AF6  C037  FFD9         	movff	vfpfcnvrt@fmt,fsr2l
  2406   002AFA  C038  FFDA         	movff	vfpfcnvrt@fmt+1,fsr2h
  2407   002AFE  2ADE               	incf	postinc2,f,c
  2408   002B00  0E00               	movlw	0
  2409   002B02  22DD               	addwfc	postdec2,f,c
  2410   002B04  EF99  F015         	goto	l1401
  2411   002B08                     l4137:
  2412                           
  2413                           ;C:\Program Files\Microchip\xc8\v2.41\pic\sources\c99\common\doprnt.c: 1540:     fputc((
      +                          int)(*fmt)[0], fp);
  2414   002B08  C037  FFD9         	movff	vfpfcnvrt@fmt,fsr2l
  2415   002B0C  C038  FFDA         	movff	vfpfcnvrt@fmt+1,fsr2h
  2416   002B10  CFDE FFF6          	movff	postinc2,tblptrl
  2417   002B14  CFDD FFF7          	movff	postdec2,tblptrh
  2418   002B18                     	if	1	;Program memory is < 0x10000, tblptru is always zero
  2419   002B18  6AF8               	clrf	tblptru,c
  2420   002B1A                     	endif
  2421   002B1A                     	if	0	;tblptru may be non-zero
  2422   002B1A                     	endif
  2423   002B1A  0008               	tblrd		*
  2424   002B1C  50F5               	movf	tablat,w,c
  2425   002B1E  6E0D               	movwf	fputc@c^0,c
  2426   002B20  6A0E               	clrf	(fputc@c+1)^0,c
  2427   002B22  C035  F00F         	movff	vfpfcnvrt@fp,fputc@fp
  2428   002B26  C036  F010         	movff	vfpfcnvrt@fp+1,fputc@fp+1
  2429   002B2A  ECC7  F018         	call	_fputc	;wreg free
  2430   002B2E  EF7B  F015         	goto	l4133
  2431   002B32                     l1401:
  2432   002B32  0012               	return		;funcret
  2433   002B34                     __end_of_vfpfcnvrt:
  2434                           	callstack 0
  2435                           
  2436 ;; *************** function _dtoa *****************
  2437 ;; Defined at:
  2438 ;;		line 470 in file "C:\Program Files\Microchip\xc8\v2.41\pic\sources\c99\common\doprnt.c"
  2439 ;; Parameters:    Size  Location     Type
  2440 ;;  fp              2   39[COMRAM] PTR struct _IO_FILE
  2441 ;;		 -> sprintf@f(12), 
  2442 ;;  d               2   41[COMRAM] int 
  2443 ;; Auto vars:     Size  Location     Type
  2444 ;;  i               2   49[COMRAM] int 
  2445 ;;  w               2   47[COMRAM] int 
  2446 ;;  p               2   45[COMRAM] int 
  2447 ;;  s               1   51[COMRAM] unsigned char 
  2448 ;; Return value:  Size  Location     Type
  2449 ;;                  1    wreg      void 
  2450 ;; Registers used:
  2451 ;;		wreg, fsr1l, fsr1h, fsr2l, fsr2h, status,2, status,0, cstack
  2452 ;; Tracked objects:
  2453 ;;		On entry : 0/0
  2454 ;;		On exit  : 0/0
  2455 ;;		Unchanged: 0/0
  2456 ;; Data sizes:     COMRAM   BANK0   BANK1   BANK2   BANK3   BANK4   BANK5   BANK6   BANK7   BANK8   BANK9  BANK10  BANK1
      +1  BANK12  BANK13  BANK14  BANK15
  2457 ;;      Params:         4       0       0       0       0       0       0       0       0       0       0       0       
      +0       0       0       0       0
  2458 ;;      Locals:         9       0       0       0       0       0       0       0       0       0       0       0       
      +0       0       0       0       0
  2459 ;;      Temps:          0       0       0       0       0       0       0       0       0       0       0       0       
      +0       0       0       0       0
  2460 ;;      Totals:        13       0       0       0       0       0       0       0       0       0       0       0       
      +0       0       0       0       0
  2461 ;;Total ram usage:       13 bytes
  2462 ;; Hardware stack levels used: 1
  2463 ;; Hardware stack levels required when called: 8
  2464 ;; This function calls:
  2465 ;;		___awdiv
  2466 ;;		___awmod
  2467 ;;		_abs
  2468 ;;		_pad
  2469 ;; This function is called by:
  2470 ;;		_vfpfcnvrt
  2471 ;; This function uses a non-reentrant model
  2472 ;;
  2473                           
  2474                           	psect	text9
  2475   002450                     __ptext9:
  2476                           	callstack 0
  2477   002450                     _dtoa:
  2478                           	callstack 18
  2479   002450                     
  2480                           ;C:\Program Files\Microchip\xc8\v2.41\pic\sources\c99\common\doprnt.c: 470: static void 
      +                          dtoa(FILE *fp, vfpf_sint_t d);C:\Program Files\Microchip\xc8\v2.41\pic\sources\c99\commo
      +                          n\doprnt.c: 471: {;C:\Program Files\Microchip\xc8\v2.41\pic\sources\c99\common\doprnt.c:
      +                           472:  char s;;C:\Program Files\Microchip\xc8\v2.41\pic\sources\c99\common\doprnt.c: 473
      +                          :     int i, p, w;;C:\Program Files\Microchip\xc8\v2.41\pic\sources\c99\common\doprnt.c:
      +                           476:     s = d < 0 ? 1 : 0;
  2481   002450  BE2B               	btfsc	(dtoa@d+1)^0,7,c
  2482   002452  EF2D  F012         	goto	u3051
  2483   002456  EF30  F012         	goto	u3050
  2484   00245A                     u3051:
  2485   00245A  0E01               	movlw	1
  2486   00245C  EF31  F012         	goto	u3060
  2487   002460                     u3050:
  2488   002460  0E00               	movlw	0
  2489   002462                     u3060:
  2490   002462  6E34               	movwf	dtoa@s^0,c
  2491   002464                     
  2492                           ;C:\Program Files\Microchip\xc8\v2.41\pic\sources\c99\common\doprnt.c: 477:     if (s) {
  2493   002464  5034               	movf	dtoa@s^0,w,c
  2494   002466  B4D8               	btfsc	status,2,c
  2495   002468  EF38  F012         	goto	u3071
  2496   00246C  EF3A  F012         	goto	u3070
  2497   002470                     u3071:
  2498   002470  EF3E  F012         	goto	l3449
  2499   002474                     u3070:
  2500   002474                     
  2501                           ;C:\Program Files\Microchip\xc8\v2.41\pic\sources\c99\common\doprnt.c: 478:         d = 
      +                          -d;
  2502   002474  6C2A               	negf	dtoa@d^0,c
  2503   002476  1E2B               	comf	(dtoa@d+1)^0,f,c
  2504   002478  B0D8               	btfsc	status,0,c
  2505   00247A  2A2B               	incf	(dtoa@d+1)^0,f,c
  2506   00247C                     l3449:
  2507                           
  2508                           ;C:\Program Files\Microchip\xc8\v2.41\pic\sources\c99\common\doprnt.c: 487:     p = (0 <
      +                          = prec) ? prec : 1;
  2509   00247C  BE69               	btfsc	(_prec+1)^0,7,c
  2510   00247E  EF45  F012         	goto	u3080
  2511   002482  EF43  F012         	goto	u3081
  2512   002486                     u3081:
  2513   002486  EF4B  F012         	goto	l1380
  2514   00248A                     u3080:
  2515   00248A  0E00               	movlw	0
  2516   00248C  6E2F               	movwf	(dtoa@p+1)^0,c
  2517   00248E  0E01               	movlw	1
  2518   002490  6E2E               	movwf	dtoa@p^0,c
  2519   002492  EF4F  F012         	goto	l1382
  2520   002496                     l1380:
  2521   002496  C068  F02E         	movff	_prec,dtoa@p
  2522   00249A  C069  F02F         	movff	_prec+1,dtoa@p+1
  2523   00249E                     l1382:
  2524                           
  2525                           ;C:\Program Files\Microchip\xc8\v2.41\pic\sources\c99\common\doprnt.c: 488:     w = widt
      +                          h;
  2526   00249E  C0D0  F030         	movff	_width,dtoa@w
  2527   0024A2  C0D1  F031         	movff	_width+1,dtoa@w+1
  2528   0024A6                     
  2529                           ;C:\Program Files\Microchip\xc8\v2.41\pic\sources\c99\common\doprnt.c: 489:     if (s
  2530   0024A6  5034               	movf	dtoa@s^0,w,c
  2531   0024A8  B4D8               	btfsc	status,2,c
  2532   0024AA  EF59  F012         	goto	u3091
  2533   0024AE  EF5B  F012         	goto	u3090
  2534   0024B2                     u3091:
  2535   0024B2  EF72  F012         	goto	l1383
  2536   0024B6                     u3090:
  2537   0024B6                     
  2538                           ;C:\Program Files\Microchip\xc8\v2.41\pic\sources\c99\common\doprnt.c: 493:     ) {;C:\P
      +                          rogram Files\Microchip\xc8\v2.41\pic\sources\c99\common\doprnt.c: 494:         --w;
  2539   0024B6  0630               	decf	dtoa@w^0,f,c
  2540   0024B8  A0D8               	btfss	status,0,c
  2541   0024BA  0631               	decf	(dtoa@w+1)^0,f,c
  2542   0024BC                     
  2543                           ;C:\Program Files\Microchip\xc8\v2.41\pic\sources\c99\common\doprnt.c: 495:   s = s ? '-
      +                          ' : '+';
  2544   0024BC  5034               	movf	dtoa@s^0,w,c
  2545   0024BE  A4D8               	btfss	status,2,c
  2546   0024C0  EF64  F012         	goto	u3101
  2547   0024C4  EF66  F012         	goto	u3100
  2548   0024C8                     u3101:
  2549   0024C8  EF6C  F012         	goto	l3461
  2550   0024CC                     u3100:
  2551   0024CC  0E00               	movlw	0
  2552   0024CE  6E2D               	movwf	(_dtoa$2255+1)^0,c
  2553   0024D0  0E2B               	movlw	43
  2554   0024D2  6E2C               	movwf	_dtoa$2255^0,c
  2555   0024D4  EF70  F012         	goto	l3463
  2556   0024D8                     l3461:
  2557   0024D8  0E00               	movlw	0
  2558   0024DA  6E2D               	movwf	(_dtoa$2255+1)^0,c
  2559   0024DC  0E2D               	movlw	45
  2560   0024DE  6E2C               	movwf	_dtoa$2255^0,c
  2561   0024E0                     l3463:
  2562   0024E0  C02C  F034         	movff	_dtoa$2255,dtoa@s
  2563   0024E4                     l1383:
  2564                           
  2565                           ;C:\Program Files\Microchip\xc8\v2.41\pic\sources\c99\common\doprnt.c: 505:     i = size
      +                          of(dbuf) - 1;
  2566   0024E4  0E00               	movlw	0
  2567   0024E6  6E33               	movwf	(dtoa@i+1)^0,c
  2568   0024E8  0E1F               	movlw	31
  2569   0024EA  6E32               	movwf	dtoa@i^0,c
  2570   0024EC                     
  2571                           ;C:\Program Files\Microchip\xc8\v2.41\pic\sources\c99\common\doprnt.c: 506:     dbuf[i] 
      +                          = '\0';
  2572   0024EC  0E00               	movlw	0
  2573   0024EE  0101               	movlb	1	; () banked
  2574   0024F0  6F1F               	movwf	(_dbuf+31)& (0+255),b
  2575                           
  2576                           ;C:\Program Files\Microchip\xc8\v2.41\pic\sources\c99\common\doprnt.c: 507:     while (!
      +                          (i < 1) && (d || (0 < p)
  2577   0024F2  EFAB  F012         	goto	l3477
  2578   0024F6                     l3467:
  2579                           
  2580                           ;C:\Program Files\Microchip\xc8\v2.41\pic\sources\c99\common\doprnt.c: 511:     )) {;C:\
      +                          Program Files\Microchip\xc8\v2.41\pic\sources\c99\common\doprnt.c: 512:         --i;
  2581   0024F6  0632               	decf	dtoa@i^0,f,c
  2582   0024F8  A0D8               	btfss	status,0,c
  2583   0024FA  0633               	decf	(dtoa@i+1)^0,f,c
  2584   0024FC                     
  2585                           ;C:\Program Files\Microchip\xc8\v2.41\pic\sources\c99\common\doprnt.c: 513:         dbuf
      +                          [i] = (char)((int)'0' + abs(d % 10));
  2586   0024FC  0E00               	movlw	low _dbuf
  2587   0024FE  2432               	addwf	dtoa@i^0,w,c
  2588   002500  6ED9               	movwf	fsr2l,c
  2589   002502  0E01               	movlw	high _dbuf
  2590   002504  2033               	addwfc	(dtoa@i+1)^0,w,c
  2591   002506  6EDA               	movwf	fsr2h,c
  2592   002508  C02A  F00D         	movff	dtoa@d,___awmod@dividend
  2593   00250C  C02B  F00E         	movff	dtoa@d+1,___awmod@dividend+1
  2594   002510  0E00               	movlw	0
  2595   002512  6E10               	movwf	(___awmod@divisor+1)^0,c
  2596   002514  0E0A               	movlw	10
  2597   002516  6E0F               	movwf	___awmod@divisor^0,c
  2598   002518  EC48  F01A         	call	___awmod	;wreg free
  2599   00251C  C00D  F013         	movff	?___awmod,abs@a
  2600   002520  C00E  F014         	movff	?___awmod+1,abs@a+1
  2601   002524  EC1B  F01D         	call	_abs	;wreg free
  2602   002528  5013               	movf	?_abs^0,w,c
  2603   00252A  0F30               	addlw	48
  2604   00252C  6EDF               	movwf	indf2,c
  2605   00252E                     
  2606                           ;C:\Program Files\Microchip\xc8\v2.41\pic\sources\c99\common\doprnt.c: 514:         --p;
  2607   00252E  062E               	decf	dtoa@p^0,f,c
  2608   002530  A0D8               	btfss	status,0,c
  2609   002532  062F               	decf	(dtoa@p+1)^0,f,c
  2610   002534                     
  2611                           ;C:\Program Files\Microchip\xc8\v2.41\pic\sources\c99\common\doprnt.c: 515:         --w;
  2612   002534  0630               	decf	dtoa@w^0,f,c
  2613   002536  A0D8               	btfss	status,0,c
  2614   002538  0631               	decf	(dtoa@w+1)^0,f,c
  2615   00253A                     
  2616                           ;C:\Program Files\Microchip\xc8\v2.41\pic\sources\c99\common\doprnt.c: 516:         d = 
      +                          d / 10;
  2617   00253A  C02A  F00D         	movff	dtoa@d,___awdiv@dividend
  2618   00253E  C02B  F00E         	movff	dtoa@d+1,___awdiv@dividend+1
  2619   002542  0E00               	movlw	0
  2620   002544  6E10               	movwf	(___awdiv@divisor+1)^0,c
  2621   002546  0E0A               	movlw	10
  2622   002548  6E0F               	movwf	___awdiv@divisor^0,c
  2623   00254A  EC2C  F019         	call	___awdiv	;wreg free
  2624   00254E  C00D  F02A         	movff	?___awdiv,dtoa@d
  2625   002552  C00E  F02B         	movff	?___awdiv+1,dtoa@d+1
  2626   002556                     l3477:
  2627                           
  2628                           ;C:\Program Files\Microchip\xc8\v2.41\pic\sources\c99\common\doprnt.c: 507:     while (!
      +                          (i < 1) && (d || (0 < p)
  2629   002556  BE33               	btfsc	(dtoa@i+1)^0,7,c
  2630   002558  EFB6  F012         	goto	u3111
  2631   00255C  5033               	movf	(dtoa@i+1)^0,w,c
  2632   00255E  E108               	bnz	u3110
  2633   002560  0432               	decf	dtoa@i^0,w,c
  2634   002562  A0D8               	btfss	status,0,c
  2635   002564  EFB6  F012         	goto	u3111
  2636   002568  EFB8  F012         	goto	u3110
  2637   00256C                     u3111:
  2638   00256C  EFCE  F012         	goto	l3483
  2639   002570                     u3110:
  2640   002570  502A               	movf	dtoa@d^0,w,c
  2641   002572  102B               	iorwf	(dtoa@d+1)^0,w,c
  2642   002574  A4D8               	btfss	status,2,c
  2643   002576  EFBF  F012         	goto	u3121
  2644   00257A  EFC1  F012         	goto	u3120
  2645   00257E                     u3121:
  2646   00257E  EF7B  F012         	goto	l3467
  2647   002582                     u3120:
  2648   002582  BE2F               	btfsc	(dtoa@p+1)^0,7,c
  2649   002584  EFCE  F012         	goto	u3130
  2650   002588  502F               	movf	(dtoa@p+1)^0,w,c
  2651   00258A  E106               	bnz	u3131
  2652   00258C  042E               	decf	dtoa@p^0,w,c
  2653   00258E  B0D8               	btfsc	status,0,c
  2654   002590  EFCC  F012         	goto	u3131
  2655   002594  EFCE  F012         	goto	u3130
  2656   002598                     u3131:
  2657   002598  EF7B  F012         	goto	l3467
  2658   00259C                     u3130:
  2659   00259C                     l3483:
  2660                           
  2661                           ;C:\Program Files\Microchip\xc8\v2.41\pic\sources\c99\common\doprnt.c: 520:     if (s !=
      +                           0) {
  2662   00259C  5034               	movf	dtoa@s^0,w,c
  2663   00259E  B4D8               	btfsc	status,2,c
  2664   0025A0  EFD4  F012         	goto	u3141
  2665   0025A4  EFD6  F012         	goto	u3140
  2666   0025A8                     u3141:
  2667   0025A8  EFE1  F012         	goto	l3489
  2668   0025AC                     u3140:
  2669   0025AC                     
  2670                           ;C:\Program Files\Microchip\xc8\v2.41\pic\sources\c99\common\doprnt.c: 521:         --i;
  2671   0025AC  0632               	decf	dtoa@i^0,f,c
  2672   0025AE  A0D8               	btfss	status,0,c
  2673   0025B0  0633               	decf	(dtoa@i+1)^0,f,c
  2674   0025B2                     
  2675                           ;C:\Program Files\Microchip\xc8\v2.41\pic\sources\c99\common\doprnt.c: 522:         dbuf
      +                          [i] = s;
  2676   0025B2  0E00               	movlw	low _dbuf
  2677   0025B4  2432               	addwf	dtoa@i^0,w,c
  2678   0025B6  6ED9               	movwf	fsr2l,c
  2679   0025B8  0E01               	movlw	high _dbuf
  2680   0025BA  2033               	addwfc	(dtoa@i+1)^0,w,c
  2681   0025BC  6EDA               	movwf	fsr2h,c
  2682   0025BE  C034  FFDF         	movff	dtoa@s,indf2
  2683   0025C2                     l3489:
  2684                           
  2685                           ;C:\Program Files\Microchip\xc8\v2.41\pic\sources\c99\common\doprnt.c: 526:     return (
      +                          void) pad(fp, &dbuf[i], w);
  2686   0025C2  C028  F01D         	movff	dtoa@fp,pad@fp
  2687   0025C6  C029  F01E         	movff	dtoa@fp+1,pad@fp+1
  2688   0025CA  0E00               	movlw	low _dbuf
  2689   0025CC  2432               	addwf	dtoa@i^0,w,c
  2690   0025CE  6E1F               	movwf	pad@buf^0,c
  2691   0025D0  0E01               	movlw	high _dbuf
  2692   0025D2  2033               	addwfc	(dtoa@i+1)^0,w,c
  2693   0025D4  6E20               	movwf	(pad@buf+1)^0,c
  2694   0025D6  C030  F021         	movff	dtoa@w,pad@p
  2695   0025DA  C031  F022         	movff	dtoa@w+1,pad@p+1
  2696   0025DE  EC2F  F01B         	call	_pad	;wreg free
  2697   0025E2  0012               	return		;funcret
  2698   0025E4                     __end_of_dtoa:
  2699                           	callstack 0
  2700                           
  2701 ;; *************** function _pad *****************
  2702 ;; Defined at:
  2703 ;;		line 152 in file "C:\Program Files\Microchip\xc8\v2.41\pic\sources\c99\common\doprnt.c"
  2704 ;; Parameters:    Size  Location     Type
  2705 ;;  fp              2   28[COMRAM] PTR struct _IO_FILE
  2706 ;;		 -> sprintf@f(12), 
  2707 ;;  buf             2   30[COMRAM] PTR unsigned char 
  2708 ;;		 -> dbuf(32), 
  2709 ;;  p               2   32[COMRAM] int 
  2710 ;; Auto vars:     Size  Location     Type
  2711 ;;  w               2   37[COMRAM] int 
  2712 ;;  i               2   35[COMRAM] int 
  2713 ;; Return value:  Size  Location     Type
  2714 ;;                  1    wreg      void 
  2715 ;; Registers used:
  2716 ;;		wreg, fsr1l, fsr1h, fsr2l, fsr2h, status,2, status,0, cstack
  2717 ;; Tracked objects:
  2718 ;;		On entry : 0/0
  2719 ;;		On exit  : 0/0
  2720 ;;		Unchanged: 0/0
  2721 ;; Data sizes:     COMRAM   BANK0   BANK1   BANK2   BANK3   BANK4   BANK5   BANK6   BANK7   BANK8   BANK9  BANK10  BANK1
      +1  BANK12  BANK13  BANK14  BANK15
  2722 ;;      Params:         6       0       0       0       0       0       0       0       0       0       0       0       
      +0       0       0       0       0
  2723 ;;      Locals:         4       0       0       0       0       0       0       0       0       0       0       0       
      +0       0       0       0       0
  2724 ;;      Temps:          1       0       0       0       0       0       0       0       0       0       0       0       
      +0       0       0       0       0
  2725 ;;      Totals:        11       0       0       0       0       0       0       0       0       0       0       0       
      +0       0       0       0       0
  2726 ;;Total ram usage:       11 bytes
  2727 ;; Hardware stack levels used: 1
  2728 ;; Hardware stack levels required when called: 7
  2729 ;; This function calls:
  2730 ;;		_fputc
  2731 ;;		_fputs
  2732 ;; This function is called by:
  2733 ;;		_dtoa
  2734 ;; This function uses a non-reentrant model
  2735 ;;
  2736                           
  2737                           	psect	text10
  2738   00365E                     __ptext10:
  2739                           	callstack 0
  2740   00365E                     _pad:
  2741                           	callstack 18
  2742   00365E                     
  2743                           ;C:\Program Files\Microchip\xc8\v2.41\pic\sources\c99\common\doprnt.c: 152: static void 
      +                          pad(FILE *fp, char *buf, int p);C:\Program Files\Microchip\xc8\v2.41\pic\sources\c99\com
      +                          mon\doprnt.c: 153: {;C:\Program Files\Microchip\xc8\v2.41\pic\sources\c99\common\doprnt.
      +                          c: 154:     int i, w;;C:\Program Files\Microchip\xc8\v2.41\pic\sources\c99\common\doprnt
      +                          .c: 164:     w = (p < 0) ? 0 : p;
  2744   00365E  BE22               	btfsc	(pad@p+1)^0,7,c
  2745   003660  EF34  F01B         	goto	u2961
  2746   003664  EF36  F01B         	goto	u2960
  2747   003668                     u2961:
  2748   003668  EF3C  F01B         	goto	l3409
  2749   00366C                     u2960:
  2750   00366C  C021  F026         	movff	pad@p,pad@w
  2751   003670  C022  F027         	movff	pad@p+1,pad@w+1
  2752   003674  EF40  F01B         	goto	l1371
  2753   003678                     l3409:
  2754   003678  0E00               	movlw	0
  2755   00367A  6E27               	movwf	(pad@w+1)^0,c
  2756   00367C  0E00               	movlw	0
  2757   00367E  6E26               	movwf	pad@w^0,c
  2758   003680                     l1371:
  2759                           
  2760                           ;C:\Program Files\Microchip\xc8\v2.41\pic\sources\c99\common\doprnt.c: 165:     i = 0;
  2761   003680  0E00               	movlw	0
  2762   003682  6E25               	movwf	(pad@i+1)^0,c
  2763   003684  0E00               	movlw	0
  2764   003686  6E24               	movwf	pad@i^0,c
  2765                           
  2766                           ;C:\Program Files\Microchip\xc8\v2.41\pic\sources\c99\common\doprnt.c: 166:     while (i
      +                           < w) {
  2767   003688  EF52  F01B         	goto	l3415
  2768   00368C                     l3411:
  2769                           
  2770                           ;C:\Program Files\Microchip\xc8\v2.41\pic\sources\c99\common\doprnt.c: 167:         fput
      +                          c(' ', fp);
  2771   00368C  0E00               	movlw	0
  2772   00368E  6E0E               	movwf	(fputc@c+1)^0,c
  2773   003690  0E20               	movlw	32
  2774   003692  6E0D               	movwf	fputc@c^0,c
  2775   003694  C01D  F00F         	movff	pad@fp,fputc@fp
  2776   003698  C01E  F010         	movff	pad@fp+1,fputc@fp+1
  2777   00369C  ECC7  F018         	call	_fputc	;wreg free
  2778   0036A0                     
  2779                           ;C:\Program Files\Microchip\xc8\v2.41\pic\sources\c99\common\doprnt.c: 168:         ++i;
  2780   0036A0  4A24               	infsnz	pad@i^0,f,c
  2781   0036A2  2A25               	incf	(pad@i+1)^0,f,c
  2782   0036A4                     l3415:
  2783                           
  2784                           ;C:\Program Files\Microchip\xc8\v2.41\pic\sources\c99\common\doprnt.c: 166:     while (i
      +                           < w) {
  2785   0036A4  5026               	movf	pad@w^0,w,c
  2786   0036A6  5C24               	subwf	pad@i^0,w,c
  2787   0036A8  5025               	movf	(pad@i+1)^0,w,c
  2788   0036AA  0A80               	xorlw	128
  2789   0036AC  6E23               	movwf	??_pad^0,c
  2790   0036AE  5027               	movf	(pad@w+1)^0,w,c
  2791   0036B0  0A80               	xorlw	128
  2792   0036B2  5823               	subwfb	??_pad^0,w,c
  2793   0036B4  A0D8               	btfss	status,0,c
  2794   0036B6  EF5F  F01B         	goto	u2971
  2795   0036BA  EF61  F01B         	goto	u2970
  2796   0036BE                     u2971:
  2797   0036BE  EF46  F01B         	goto	l3411
  2798   0036C2                     u2970:
  2799   0036C2                     
  2800                           ;C:\Program Files\Microchip\xc8\v2.41\pic\sources\c99\common\doprnt.c: 175:         fput
      +                          s((const char *)buf, fp);
  2801   0036C2  C01F  F016         	movff	pad@buf,fputs@s
  2802   0036C6  C020  F017         	movff	pad@buf+1,fputs@s+1
  2803   0036CA  C01D  F018         	movff	pad@fp,fputs@fp
  2804   0036CE  C01E  F019         	movff	pad@fp+1,fputs@fp+1
  2805   0036D2  ECF9  F01C         	call	_fputs	;wreg free
  2806   0036D6  0012               	return		;funcret
  2807   0036D8                     __end_of_pad:
  2808                           	callstack 0
  2809                           
  2810 ;; *************** function _fputs *****************
  2811 ;; Defined at:
  2812 ;;		line 8 in file "C:\Program Files\Microchip\xc8\v2.41\pic\sources\c99\common\nf_fputs.c"
  2813 ;; Parameters:    Size  Location     Type
  2814 ;;  s               2   21[COMRAM] PTR const unsigned char 
  2815 ;;		 -> dbuf(32), 
  2816 ;;  fp              2   23[COMRAM] PTR struct _IO_FILE
  2817 ;;		 -> sprintf@f(12), 
  2818 ;; Auto vars:     Size  Location     Type
  2819 ;;  i               2   26[COMRAM] int 
  2820 ;;  c               1   25[COMRAM] unsigned char 
  2821 ;; Return value:  Size  Location     Type
  2822 ;;                  2   21[COMRAM] int 
  2823 ;; Registers used:
  2824 ;;		wreg, fsr1l, fsr1h, fsr2l, fsr2h, status,2, status,0, cstack
  2825 ;; Tracked objects:
  2826 ;;		On entry : 0/0
  2827 ;;		On exit  : 0/0
  2828 ;;		Unchanged: 0/0
  2829 ;; Data sizes:     COMRAM   BANK0   BANK1   BANK2   BANK3   BANK4   BANK5   BANK6   BANK7   BANK8   BANK9  BANK10  BANK1
      +1  BANK12  BANK13  BANK14  BANK15
  2830 ;;      Params:         4       0       0       0       0       0       0       0       0       0       0       0       
      +0       0       0       0       0
  2831 ;;      Locals:         3       0       0       0       0       0       0       0       0       0       0       0       
      +0       0       0       0       0
  2832 ;;      Temps:          0       0       0       0       0       0       0       0       0       0       0       0       
      +0       0       0       0       0
  2833 ;;      Totals:         7       0       0       0       0       0       0       0       0       0       0       0       
      +0       0       0       0       0
  2834 ;;Total ram usage:        7 bytes
  2835 ;; Hardware stack levels used: 1
  2836 ;; Hardware stack levels required when called: 6
  2837 ;; This function calls:
  2838 ;;		_fputc
  2839 ;; This function is called by:
  2840 ;;		_pad
  2841 ;; This function uses a non-reentrant model
  2842 ;;
  2843                           
  2844                           	psect	text11
  2845   0039F2                     __ptext11:
  2846                           	callstack 0
  2847   0039F2                     _fputs:
  2848                           	callstack 18
  2849   0039F2  0E00               	movlw	0
  2850   0039F4  6E1C               	movwf	(fputs@i+1)^0,c
  2851   0039F6  0E00               	movlw	0
  2852   0039F8  6E1B               	movwf	fputs@i^0,c
  2853   0039FA  EF0A  F01D         	goto	l3323
  2854   0039FE                     l3319:
  2855   0039FE  C01A  F00D         	movff	fputs@c,fputc@c
  2856   003A02  6A0E               	clrf	(fputc@c+1)^0,c
  2857   003A04  C018  F00F         	movff	fputs@fp,fputc@fp
  2858   003A08  C019  F010         	movff	fputs@fp+1,fputc@fp+1
  2859   003A0C  ECC7  F018         	call	_fputc	;wreg free
  2860   003A10  4A1B               	infsnz	fputs@i^0,f,c
  2861   003A12  2A1C               	incf	(fputs@i+1)^0,f,c
  2862   003A14                     l3323:
  2863   003A14  501B               	movf	fputs@i^0,w,c
  2864   003A16  2416               	addwf	fputs@s^0,w,c
  2865   003A18  6ED9               	movwf	fsr2l,c
  2866   003A1A  501C               	movf	(fputs@i+1)^0,w,c
  2867   003A1C  2017               	addwfc	(fputs@s+1)^0,w,c
  2868   003A1E  6EDA               	movwf	fsr2h,c
  2869   003A20  50DF               	movf	indf2,w,c
  2870   003A22  6E1A               	movwf	fputs@c^0,c
  2871   003A24  501A               	movf	fputs@c^0,w,c
  2872   003A26  A4D8               	btfss	status,2,c
  2873   003A28  EF18  F01D         	goto	u2831
  2874   003A2C  EF1A  F01D         	goto	u2830
  2875   003A30                     u2831:
  2876   003A30  EFFF  F01C         	goto	l3319
  2877   003A34                     u2830:
  2878   003A34  0012               	return		;funcret
  2879   003A36                     __end_of_fputs:
  2880                           	callstack 0
  2881                           
  2882 ;; *************** function _fputc *****************
  2883 ;; Defined at:
  2884 ;;		line 8 in file "C:\Program Files\Microchip\xc8\v2.41\pic\sources\c99\common\nf_fputc.c"
  2885 ;; Parameters:    Size  Location     Type
  2886 ;;  c               2   12[COMRAM] int 
  2887 ;;  fp              2   14[COMRAM] PTR struct _IO_FILE
  2888 ;;		 -> sprintf@f(12), 
  2889 ;; Auto vars:     Size  Location     Type
  2890 ;;		None
  2891 ;; Return value:  Size  Location     Type
  2892 ;;                  2   12[COMRAM] int 
  2893 ;; Registers used:
  2894 ;;		wreg, fsr1l, fsr1h, fsr2l, fsr2h, status,2, status,0, cstack
  2895 ;; Tracked objects:
  2896 ;;		On entry : 0/0
  2897 ;;		On exit  : 0/0
  2898 ;;		Unchanged: 0/0
  2899 ;; Data sizes:     COMRAM   BANK0   BANK1   BANK2   BANK3   BANK4   BANK5   BANK6   BANK7   BANK8   BANK9  BANK10  BANK1
      +1  BANK12  BANK13  BANK14  BANK15
  2900 ;;      Params:         4       0       0       0       0       0       0       0       0       0       0       0       
      +0       0       0       0       0
  2901 ;;      Locals:         0       0       0       0       0       0       0       0       0       0       0       0       
      +0       0       0       0       0
  2902 ;;      Temps:          5       0       0       0       0       0       0       0       0       0       0       0       
      +0       0       0       0       0
  2903 ;;      Totals:         9       0       0       0       0       0       0       0       0       0       0       0       
      +0       0       0       0       0
  2904 ;;Total ram usage:        9 bytes
  2905 ;; Hardware stack levels used: 1
  2906 ;; Hardware stack levels required when called: 5
  2907 ;; This function calls:
  2908 ;;		_putch
  2909 ;; This function is called by:
  2910 ;;		_pad
  2911 ;;		_vfpfcnvrt
  2912 ;;		_fputs
  2913 ;; This function uses a non-reentrant model
  2914 ;;
  2915                           
  2916                           	psect	text12
  2917   00318E                     __ptext12:
  2918                           	callstack 0
  2919   00318E                     _fputc:
  2920                           	callstack 21
  2921   00318E  500F               	movf	fputc@fp^0,w,c
  2922   003190  1010               	iorwf	(fputc@fp+1)^0,w,c
  2923   003192  B4D8               	btfsc	status,2,c
  2924   003194  EFCE  F018         	goto	u2791
  2925   003198  EFD0  F018         	goto	u2790
  2926   00319C                     u2791:
  2927   00319C  EFD9  F018         	goto	l3307
  2928   0031A0                     u2790:
  2929   0031A0  500F               	movf	fputc@fp^0,w,c
  2930   0031A2  1010               	iorwf	(fputc@fp+1)^0,w,c
  2931   0031A4  A4D8               	btfss	status,2,c
  2932   0031A6  EFD7  F018         	goto	u2801
  2933   0031AA  EFD9  F018         	goto	u2800
  2934   0031AE                     u2801:
  2935   0031AE  EFDE  F018         	goto	l3309
  2936   0031B2                     u2800:
  2937   0031B2                     l3307:
  2938   0031B2  500D               	movf	fputc@c^0,w,c
  2939   0031B4  EC74  F01E         	call	_putch
  2940   0031B8  EF2B  F019         	goto	l1426
  2941   0031BC                     l3309:
  2942   0031BC  EE20 F00A          	lfsr	2,10
  2943   0031C0  500F               	movf	fputc@fp^0,w,c
  2944   0031C2  26D9               	addwf	fsr2l,f,c
  2945   0031C4  5010               	movf	(fputc@fp+1)^0,w,c
  2946   0031C6  22DA               	addwfc	fsr2h,f,c
  2947   0031C8  50DE               	movf	postinc2,w,c
  2948   0031CA  10DE               	iorwf	postinc2,w,c
  2949   0031CC  B4D8               	btfsc	status,2,c
  2950   0031CE  EFEB  F018         	goto	u2811
  2951   0031D2  EFED  F018         	goto	u2810
  2952   0031D6                     u2811:
  2953   0031D6  EF08  F019         	goto	l3313
  2954   0031DA                     u2810:
  2955   0031DA  EE20 F00A          	lfsr	2,10
  2956   0031DE  500F               	movf	fputc@fp^0,w,c
  2957   0031E0  26D9               	addwf	fsr2l,f,c
  2958   0031E2  5010               	movf	(fputc@fp+1)^0,w,c
  2959   0031E4  22DA               	addwfc	fsr2h,f,c
  2960   0031E6  EE10 F003          	lfsr	1,3
  2961   0031EA  500F               	movf	fputc@fp^0,w,c
  2962   0031EC  26E1               	addwf	fsr1l,f,c
  2963   0031EE  5010               	movf	(fputc@fp+1)^0,w,c
  2964   0031F0  22E2               	addwfc	fsr1h,f,c
  2965   0031F2  50DE               	movf	postinc2,w,c
  2966   0031F4  5CE6               	subwf	postinc1,w,c
  2967   0031F6  50E6               	movf	postinc1,w,c
  2968   0031F8  0A80               	xorlw	128
  2969   0031FA  6E15               	movwf	(??_fputc+4)^0,c
  2970   0031FC  50DE               	movf	postinc2,w,c
  2971   0031FE  0A80               	xorlw	128
  2972   003200  5815               	subwfb	(??_fputc+4)^0,w,c
  2973   003202  B0D8               	btfsc	status,0,c
  2974   003204  EF06  F019         	goto	u2821
  2975   003208  EF08  F019         	goto	u2820
  2976   00320C                     u2821:
  2977   00320C  EF2B  F019         	goto	l1426
  2978   003210                     u2820:
  2979   003210                     l3313:
  2980   003210  EE20 F003          	lfsr	2,3
  2981   003214  500F               	movf	fputc@fp^0,w,c
  2982   003216  26D9               	addwf	fsr2l,f,c
  2983   003218  5010               	movf	(fputc@fp+1)^0,w,c
  2984   00321A  22DA               	addwfc	fsr2h,f,c
  2985   00321C  CFDE F011          	movff	postinc2,??_fputc
  2986   003220  CFDD F012          	movff	postdec2,??_fputc+1
  2987   003224  C00F  FFD9         	movff	fputc@fp,fsr2l
  2988   003228  C010  FFDA         	movff	fputc@fp+1,fsr2h
  2989   00322C  CFDE F013          	movff	postinc2,??_fputc+2
  2990   003230  CFDD F014          	movff	postdec2,??_fputc+3
  2991   003234  5011               	movf	??_fputc^0,w,c
  2992   003236  2413               	addwf	(??_fputc+2)^0,w,c
  2993   003238  6ED9               	movwf	fsr2l,c
  2994   00323A  5012               	movf	(??_fputc+1)^0,w,c
  2995   00323C  2014               	addwfc	(??_fputc+3)^0,w,c
  2996   00323E  6EDA               	movwf	fsr2h,c
  2997   003240  C00D  FFDF         	movff	fputc@c,indf2
  2998   003244  EE20 F003          	lfsr	2,3
  2999   003248  500F               	movf	fputc@fp^0,w,c
  3000   00324A  26D9               	addwf	fsr2l,f,c
  3001   00324C  5010               	movf	(fputc@fp+1)^0,w,c
  3002   00324E  22DA               	addwfc	fsr2h,f,c
  3003   003250  2ADE               	incf	postinc2,f,c
  3004   003252  0E00               	movlw	0
  3005   003254  22DD               	addwfc	postdec2,f,c
  3006   003256                     l1426:
  3007   003256  0012               	return		;funcret
  3008   003258                     __end_of_fputc:
  3009                           	callstack 0
  3010                           
  3011 ;; *************** function _putch *****************
  3012 ;; Defined at:
  3013 ;;		line 7 in file "C:\Program Files\Microchip\xc8\v2.41\pic\sources\c99\common\putch.c"
  3014 ;; Parameters:    Size  Location     Type
  3015 ;;  c               1    wreg     unsigned char 
  3016 ;; Auto vars:     Size  Location     Type
  3017 ;;  c               1    0[COMRAM] unsigned char 
  3018 ;; Return value:  Size  Location     Type
  3019 ;;                  1    wreg      void 
  3020 ;; Registers used:
  3021 ;;		wreg
  3022 ;; Tracked objects:
  3023 ;;		On entry : 0/0
  3024 ;;		On exit  : 0/0
  3025 ;;		Unchanged: 0/0
  3026 ;; Data sizes:     COMRAM   BANK0   BANK1   BANK2   BANK3   BANK4   BANK5   BANK6   BANK7   BANK8   BANK9  BANK10  BANK1
      +1  BANK12  BANK13  BANK14  BANK15
  3027 ;;      Params:         0       0       0       0       0       0       0       0       0       0       0       0       
      +0       0       0       0       0
  3028 ;;      Locals:         0       0       0       0       0       0       0       0       0       0       0       0       
      +0       0       0       0       0
  3029 ;;      Temps:          0       0       0       0       0       0       0       0       0       0       0       0       
      +0       0       0       0       0
  3030 ;;      Totals:         0       0       0       0       0       0       0       0       0       0       0       0       
      +0       0       0       0       0
  3031 ;;Total ram usage:        0 bytes
  3032 ;; Hardware stack levels used: 1
  3033 ;; Hardware stack levels required when called: 4
  3034 ;; This function calls:
  3035 ;;		Nothing
  3036 ;; This function is called by:
  3037 ;;		_fputc
  3038 ;; This function uses a non-reentrant model
  3039 ;;
  3040                           
  3041                           	psect	text13
  3042   003CE8                     __ptext13:
  3043                           	callstack 0
  3044   003CE8                     _putch:
  3045                           	callstack 21
  3046   003CE8  0012               	return		;funcret
  3047   003CEA                     __end_of_putch:
  3048                           	callstack 0
  3049                           
  3050 ;; *************** function _abs *****************
  3051 ;; Defined at:
  3052 ;;		line 1 in file "C:\Program Files\Microchip\xc8\v2.41\pic\sources\c99\common\abs.c"
  3053 ;; Parameters:    Size  Location     Type
  3054 ;;  a               2   18[COMRAM] int 
  3055 ;; Auto vars:     Size  Location     Type
  3056 ;;		None
  3057 ;; Return value:  Size  Location     Type
  3058 ;;                  2   18[COMRAM] int 
  3059 ;; Registers used:
  3060 ;;		wreg, status,2, status,0
  3061 ;; Tracked objects:
  3062 ;;		On entry : 0/0
  3063 ;;		On exit  : 0/0
  3064 ;;		Unchanged: 0/0
  3065 ;; Data sizes:     COMRAM   BANK0   BANK1   BANK2   BANK3   BANK4   BANK5   BANK6   BANK7   BANK8   BANK9  BANK10  BANK1
      +1  BANK12  BANK13  BANK14  BANK15
  3066 ;;      Params:         2       0       0       0       0       0       0       0       0       0       0       0       
      +0       0       0       0       0
  3067 ;;      Locals:         0       0       0       0       0       0       0       0       0       0       0       0       
      +0       0       0       0       0
  3068 ;;      Temps:          2       0       0       0       0       0       0       0       0       0       0       0       
      +0       0       0       0       0
  3069 ;;      Totals:         4       0       0       0       0       0       0       0       0       0       0       0       
      +0       0       0       0       0
  3070 ;;Total ram usage:        4 bytes
  3071 ;; Hardware stack levels used: 1
  3072 ;; Hardware stack levels required when called: 4
  3073 ;; This function calls:
  3074 ;;		Nothing
  3075 ;; This function is called by:
  3076 ;;		_dtoa
  3077 ;; This function uses a non-reentrant model
  3078 ;;
  3079                           
  3080                           	psect	text14
  3081   003A36                     __ptext14:
  3082                           	callstack 0
  3083   003A36                     _abs:
  3084                           	callstack 21
  3085   003A36  BE14               	btfsc	(abs@a+1)^0,7,c
  3086   003A38  EF28  F01D         	goto	u2980
  3087   003A3C  5014               	movf	(abs@a+1)^0,w,c
  3088   003A3E  E106               	bnz	u2981
  3089   003A40  0413               	decf	abs@a^0,w,c
  3090   003A42  B0D8               	btfsc	status,0,c
  3091   003A44  EF26  F01D         	goto	u2981
  3092   003A48  EF28  F01D         	goto	u2980
  3093   003A4C                     u2981:
  3094   003A4C  EF36  F01D         	goto	l1411
  3095   003A50                     u2980:
  3096   003A50  C013  F015         	movff	abs@a,??_abs
  3097   003A54  C014  F016         	movff	abs@a+1,??_abs+1
  3098   003A58  1E15               	comf	??_abs^0,f,c
  3099   003A5A  1E16               	comf	(??_abs+1)^0,f,c
  3100   003A5C  4A15               	infsnz	??_abs^0,f,c
  3101   003A5E  2A16               	incf	(??_abs+1)^0,f,c
  3102   003A60  C015  F013         	movff	??_abs,?_abs
  3103   003A64  C016  F014         	movff	??_abs+1,?_abs+1
  3104   003A68  EF3A  F01D         	goto	l1414
  3105   003A6C                     l1411:
  3106   003A6C  C013  F013         	movff	abs@a,?_abs
  3107   003A70  C014  F014         	movff	abs@a+1,?_abs+1
  3108   003A74                     l1414:
  3109   003A74  0012               	return		;funcret
  3110   003A76                     __end_of_abs:
  3111                           	callstack 0
  3112                           
  3113 ;; *************** function ___awmod *****************
  3114 ;; Defined at:
  3115 ;;		line 7 in file "C:\Program Files\Microchip\xc8\v2.41\pic\sources\c99\common\awmod.c"
  3116 ;; Parameters:    Size  Location     Type
  3117 ;;  dividend        2   12[COMRAM] int 
  3118 ;;  divisor         2   14[COMRAM] int 
  3119 ;; Auto vars:     Size  Location     Type
  3120 ;;  sign            1   17[COMRAM] unsigned char 
  3121 ;;  counter         1   16[COMRAM] unsigned char 
  3122 ;; Return value:  Size  Location     Type
  3123 ;;                  2   12[COMRAM] int 
  3124 ;; Registers used:
  3125 ;;		wreg, status,2, status,0
  3126 ;; Tracked objects:
  3127 ;;		On entry : 0/0
  3128 ;;		On exit  : 0/0
  3129 ;;		Unchanged: 0/0
  3130 ;; Data sizes:     COMRAM   BANK0   BANK1   BANK2   BANK3   BANK4   BANK5   BANK6   BANK7   BANK8   BANK9  BANK10  BANK1
      +1  BANK12  BANK13  BANK14  BANK15
  3131 ;;      Params:         4       0       0       0       0       0       0       0       0       0       0       0       
      +0       0       0       0       0
  3132 ;;      Locals:         2       0       0       0       0       0       0       0       0       0       0       0       
      +0       0       0       0       0
  3133 ;;      Temps:          0       0       0       0       0       0       0       0       0       0       0       0       
      +0       0       0       0       0
  3134 ;;      Totals:         6       0       0       0       0       0       0       0       0       0       0       0       
      +0       0       0       0       0
  3135 ;;Total ram usage:        6 bytes
  3136 ;; Hardware stack levels used: 1
  3137 ;; Hardware stack levels required when called: 4
  3138 ;; This function calls:
  3139 ;;		Nothing
  3140 ;; This function is called by:
  3141 ;;		_dtoa
  3142 ;; This function uses a non-reentrant model
  3143 ;;
  3144                           
  3145                           	psect	text15
  3146   003490                     __ptext15:
  3147                           	callstack 0
  3148   003490                     ___awmod:
  3149                           	callstack 21
  3150   003490  0E00               	movlw	0
  3151   003492  6E12               	movwf	___awmod@sign^0,c
  3152   003494  BE0E               	btfsc	(___awmod@dividend+1)^0,7,c
  3153   003496  EF51  F01A         	goto	u2900
  3154   00349A  EF4F  F01A         	goto	u2901
  3155   00349E                     u2901:
  3156   00349E  EF57  F01A         	goto	l3377
  3157   0034A2                     u2900:
  3158   0034A2  6C0D               	negf	___awmod@dividend^0,c
  3159   0034A4  1E0E               	comf	(___awmod@dividend+1)^0,f,c
  3160   0034A6  B0D8               	btfsc	status,0,c
  3161   0034A8  2A0E               	incf	(___awmod@dividend+1)^0,f,c
  3162   0034AA  0E01               	movlw	1
  3163   0034AC  6E12               	movwf	___awmod@sign^0,c
  3164   0034AE                     l3377:
  3165   0034AE  BE10               	btfsc	(___awmod@divisor+1)^0,7,c
  3166   0034B0  EF5E  F01A         	goto	u2910
  3167   0034B4  EF5C  F01A         	goto	u2911
  3168   0034B8                     u2911:
  3169   0034B8  EF62  F01A         	goto	l3381
  3170   0034BC                     u2910:
  3171   0034BC  6C0F               	negf	___awmod@divisor^0,c
  3172   0034BE  1E10               	comf	(___awmod@divisor+1)^0,f,c
  3173   0034C0  B0D8               	btfsc	status,0,c
  3174   0034C2  2A10               	incf	(___awmod@divisor+1)^0,f,c
  3175   0034C4                     l3381:
  3176   0034C4  500F               	movf	___awmod@divisor^0,w,c
  3177   0034C6  1010               	iorwf	(___awmod@divisor+1)^0,w,c
  3178   0034C8  B4D8               	btfsc	status,2,c
  3179   0034CA  EF69  F01A         	goto	u2921
  3180   0034CE  EF6B  F01A         	goto	u2920
  3181   0034D2                     u2921:
  3182   0034D2  EF8F  F01A         	goto	l3397
  3183   0034D6                     u2920:
  3184   0034D6  0E01               	movlw	1
  3185   0034D8  6E11               	movwf	___awmod@counter^0,c
  3186   0034DA  EF73  F01A         	goto	l3387
  3187   0034DE                     l3385:
  3188   0034DE  90D8               	bcf	status,0,c
  3189   0034E0  360F               	rlcf	___awmod@divisor^0,f,c
  3190   0034E2  3610               	rlcf	(___awmod@divisor+1)^0,f,c
  3191   0034E4  2A11               	incf	___awmod@counter^0,f,c
  3192   0034E6                     l3387:
  3193   0034E6  AE10               	btfss	(___awmod@divisor+1)^0,7,c
  3194   0034E8  EF78  F01A         	goto	u2931
  3195   0034EC  EF7A  F01A         	goto	u2930
  3196   0034F0                     u2931:
  3197   0034F0  EF6F  F01A         	goto	l3385
  3198   0034F4                     u2930:
  3199   0034F4                     l3389:
  3200   0034F4  500F               	movf	___awmod@divisor^0,w,c
  3201   0034F6  5C0D               	subwf	___awmod@dividend^0,w,c
  3202   0034F8  5010               	movf	(___awmod@divisor+1)^0,w,c
  3203   0034FA  580E               	subwfb	(___awmod@dividend+1)^0,w,c
  3204   0034FC  A0D8               	btfss	status,0,c
  3205   0034FE  EF83  F01A         	goto	u2941
  3206   003502  EF85  F01A         	goto	u2940
  3207   003506                     u2941:
  3208   003506  EF89  F01A         	goto	l3393
  3209   00350A                     u2940:
  3210   00350A  500F               	movf	___awmod@divisor^0,w,c
  3211   00350C  5E0D               	subwf	___awmod@dividend^0,f,c
  3212   00350E  5010               	movf	(___awmod@divisor+1)^0,w,c
  3213   003510  5A0E               	subwfb	(___awmod@dividend+1)^0,f,c
  3214   003512                     l3393:
  3215   003512  90D8               	bcf	status,0,c
  3216   003514  3210               	rrcf	(___awmod@divisor+1)^0,f,c
  3217   003516  320F               	rrcf	___awmod@divisor^0,f,c
  3218   003518  2E11               	decfsz	___awmod@counter^0,f,c
  3219   00351A  EF7A  F01A         	goto	l3389
  3220   00351E                     l3397:
  3221   00351E  5012               	movf	___awmod@sign^0,w,c
  3222   003520  B4D8               	btfsc	status,2,c
  3223   003522  EF95  F01A         	goto	u2951
  3224   003526  EF97  F01A         	goto	u2950
  3225   00352A                     u2951:
  3226   00352A  EF9B  F01A         	goto	l3401
  3227   00352E                     u2950:
  3228   00352E  6C0D               	negf	___awmod@dividend^0,c
  3229   003530  1E0E               	comf	(___awmod@dividend+1)^0,f,c
  3230   003532  B0D8               	btfsc	status,0,c
  3231   003534  2A0E               	incf	(___awmod@dividend+1)^0,f,c
  3232   003536                     l3401:
  3233   003536  C00D  F00D         	movff	___awmod@dividend,?___awmod
  3234   00353A  C00E  F00E         	movff	___awmod@dividend+1,?___awmod+1
  3235   00353E  0012               	return		;funcret
  3236   003540                     __end_of___awmod:
  3237                           	callstack 0
  3238                           
  3239 ;; *************** function ___awdiv *****************
  3240 ;; Defined at:
  3241 ;;		line 7 in file "C:\Program Files\Microchip\xc8\v2.41\pic\sources\c99\common\awdiv.c"
  3242 ;; Parameters:    Size  Location     Type
  3243 ;;  dividend        2   12[COMRAM] int 
  3244 ;;  divisor         2   14[COMRAM] int 
  3245 ;; Auto vars:     Size  Location     Type
  3246 ;;  quotient        2   18[COMRAM] int 
  3247 ;;  sign            1   17[COMRAM] unsigned char 
  3248 ;;  counter         1   16[COMRAM] unsigned char 
  3249 ;; Return value:  Size  Location     Type
  3250 ;;                  2   12[COMRAM] int 
  3251 ;; Registers used:
  3252 ;;		wreg, status,2, status,0
  3253 ;; Tracked objects:
  3254 ;;		On entry : 0/0
  3255 ;;		On exit  : 0/0
  3256 ;;		Unchanged: 0/0
  3257 ;; Data sizes:     COMRAM   BANK0   BANK1   BANK2   BANK3   BANK4   BANK5   BANK6   BANK7   BANK8   BANK9  BANK10  BANK1
      +1  BANK12  BANK13  BANK14  BANK15
  3258 ;;      Params:         4       0       0       0       0       0       0       0       0       0       0       0       
      +0       0       0       0       0
  3259 ;;      Locals:         4       0       0       0       0       0       0       0       0       0       0       0       
      +0       0       0       0       0
  3260 ;;      Temps:          0       0       0       0       0       0       0       0       0       0       0       0       
      +0       0       0       0       0
  3261 ;;      Totals:         8       0       0       0       0       0       0       0       0       0       0       0       
      +0       0       0       0       0
  3262 ;;Total ram usage:        8 bytes
  3263 ;; Hardware stack levels used: 1
  3264 ;; Hardware stack levels required when called: 4
  3265 ;; This function calls:
  3266 ;;		Nothing
  3267 ;; This function is called by:
  3268 ;;		_dtoa
  3269 ;; This function uses a non-reentrant model
  3270 ;;
  3271                           
  3272                           	psect	text16
  3273   003258                     __ptext16:
  3274                           	callstack 0
  3275   003258                     ___awdiv:
  3276                           	callstack 21
  3277   003258  0E00               	movlw	0
  3278   00325A  6E12               	movwf	___awdiv@sign^0,c
  3279   00325C  BE10               	btfsc	(___awdiv@divisor+1)^0,7,c
  3280   00325E  EF35  F019         	goto	u2840
  3281   003262  EF33  F019         	goto	u2841
  3282   003266                     u2841:
  3283   003266  EF3B  F019         	goto	l3333
  3284   00326A                     u2840:
  3285   00326A  6C0F               	negf	___awdiv@divisor^0,c
  3286   00326C  1E10               	comf	(___awdiv@divisor+1)^0,f,c
  3287   00326E  B0D8               	btfsc	status,0,c
  3288   003270  2A10               	incf	(___awdiv@divisor+1)^0,f,c
  3289   003272  0E01               	movlw	1
  3290   003274  6E12               	movwf	___awdiv@sign^0,c
  3291   003276                     l3333:
  3292   003276  BE0E               	btfsc	(___awdiv@dividend+1)^0,7,c
  3293   003278  EF42  F019         	goto	u2850
  3294   00327C  EF40  F019         	goto	u2851
  3295   003280                     u2851:
  3296   003280  EF48  F019         	goto	l3339
  3297   003284                     u2850:
  3298   003284  6C0D               	negf	___awdiv@dividend^0,c
  3299   003286  1E0E               	comf	(___awdiv@dividend+1)^0,f,c
  3300   003288  B0D8               	btfsc	status,0,c
  3301   00328A  2A0E               	incf	(___awdiv@dividend+1)^0,f,c
  3302   00328C  0E01               	movlw	1
  3303   00328E  1A12               	xorwf	___awdiv@sign^0,f,c
  3304   003290                     l3339:
  3305   003290  0E00               	movlw	0
  3306   003292  6E14               	movwf	(___awdiv@quotient+1)^0,c
  3307   003294  0E00               	movlw	0
  3308   003296  6E13               	movwf	___awdiv@quotient^0,c
  3309   003298  500F               	movf	___awdiv@divisor^0,w,c
  3310   00329A  1010               	iorwf	(___awdiv@divisor+1)^0,w,c
  3311   00329C  B4D8               	btfsc	status,2,c
  3312   00329E  EF53  F019         	goto	u2861
  3313   0032A2  EF55  F019         	goto	u2860
  3314   0032A6                     u2861:
  3315   0032A6  EF7D  F019         	goto	l3361
  3316   0032AA                     u2860:
  3317   0032AA  0E01               	movlw	1
  3318   0032AC  6E11               	movwf	___awdiv@counter^0,c
  3319   0032AE  EF5D  F019         	goto	l3347
  3320   0032B2                     l3345:
  3321   0032B2  90D8               	bcf	status,0,c
  3322   0032B4  360F               	rlcf	___awdiv@divisor^0,f,c
  3323   0032B6  3610               	rlcf	(___awdiv@divisor+1)^0,f,c
  3324   0032B8  2A11               	incf	___awdiv@counter^0,f,c
  3325   0032BA                     l3347:
  3326   0032BA  AE10               	btfss	(___awdiv@divisor+1)^0,7,c
  3327   0032BC  EF62  F019         	goto	u2871
  3328   0032C0  EF64  F019         	goto	u2870
  3329   0032C4                     u2871:
  3330   0032C4  EF59  F019         	goto	l3345
  3331   0032C8                     u2870:
  3332   0032C8                     l3349:
  3333   0032C8  90D8               	bcf	status,0,c
  3334   0032CA  3613               	rlcf	___awdiv@quotient^0,f,c
  3335   0032CC  3614               	rlcf	(___awdiv@quotient+1)^0,f,c
  3336   0032CE  500F               	movf	___awdiv@divisor^0,w,c
  3337   0032D0  5C0D               	subwf	___awdiv@dividend^0,w,c
  3338   0032D2  5010               	movf	(___awdiv@divisor+1)^0,w,c
  3339   0032D4  580E               	subwfb	(___awdiv@dividend+1)^0,w,c
  3340   0032D6  A0D8               	btfss	status,0,c
  3341   0032D8  EF70  F019         	goto	u2881
  3342   0032DC  EF72  F019         	goto	u2880
  3343   0032E0                     u2881:
  3344   0032E0  EF77  F019         	goto	l3357
  3345   0032E4                     u2880:
  3346   0032E4  500F               	movf	___awdiv@divisor^0,w,c
  3347   0032E6  5E0D               	subwf	___awdiv@dividend^0,f,c
  3348   0032E8  5010               	movf	(___awdiv@divisor+1)^0,w,c
  3349   0032EA  5A0E               	subwfb	(___awdiv@dividend+1)^0,f,c
  3350   0032EC  8013               	bsf	___awdiv@quotient^0,0,c
  3351   0032EE                     l3357:
  3352   0032EE  90D8               	bcf	status,0,c
  3353   0032F0  3210               	rrcf	(___awdiv@divisor+1)^0,f,c
  3354   0032F2  320F               	rrcf	___awdiv@divisor^0,f,c
  3355   0032F4  2E11               	decfsz	___awdiv@counter^0,f,c
  3356   0032F6  EF64  F019         	goto	l3349
  3357   0032FA                     l3361:
  3358   0032FA  5012               	movf	___awdiv@sign^0,w,c
  3359   0032FC  B4D8               	btfsc	status,2,c
  3360   0032FE  EF83  F019         	goto	u2891
  3361   003302  EF85  F019         	goto	u2890
  3362   003306                     u2891:
  3363   003306  EF89  F019         	goto	l3365
  3364   00330A                     u2890:
  3365   00330A  6C13               	negf	___awdiv@quotient^0,c
  3366   00330C  1E14               	comf	(___awdiv@quotient+1)^0,f,c
  3367   00330E  B0D8               	btfsc	status,0,c
  3368   003310  2A14               	incf	(___awdiv@quotient+1)^0,f,c
  3369   003312                     l3365:
  3370   003312  C013  F00D         	movff	___awdiv@quotient,?___awdiv
  3371   003316  C014  F00E         	movff	___awdiv@quotient+1,?___awdiv+1
  3372   00331A  0012               	return		;funcret
  3373   00331C                     __end_of___awdiv:
  3374                           	callstack 0
  3375                           
  3376 ;; *************** function _memset *****************
  3377 ;; Defined at:
  3378 ;;		line 4 in file "C:\Program Files\Microchip\xc8\v2.41\pic\sources\c99\common\memset.c"
  3379 ;; Parameters:    Size  Location     Type
  3380 ;;  dest            2   12[COMRAM] PTR void 
  3381 ;;		 -> arr_val(6), 
  3382 ;;  c               2   14[COMRAM] int 
  3383 ;;  n               2   16[COMRAM] unsigned int 
  3384 ;; Auto vars:     Size  Location     Type
  3385 ;;  s               2   22[COMRAM] PTR unsigned char 
  3386 ;;		 -> arr_val(6), 
  3387 ;;  k               2   20[COMRAM] unsigned int 
  3388 ;; Return value:  Size  Location     Type
  3389 ;;                  2   12[COMRAM] PTR void 
  3390 ;; Registers used:
  3391 ;;		wreg, fsr2l, fsr2h, status,2, status,0
  3392 ;; Tracked objects:
  3393 ;;		On entry : 0/0
  3394 ;;		On exit  : 0/0
  3395 ;;		Unchanged: 0/0
  3396 ;; Data sizes:     COMRAM   BANK0   BANK1   BANK2   BANK3   BANK4   BANK5   BANK6   BANK7   BANK8   BANK9  BANK10  BANK1
      +1  BANK12  BANK13  BANK14  BANK15
  3397 ;;      Params:         6       0       0       0       0       0       0       0       0       0       0       0       
      +0       0       0       0       0
  3398 ;;      Locals:         4       0       0       0       0       0       0       0       0       0       0       0       
      +0       0       0       0       0
  3399 ;;      Temps:          2       0       0       0       0       0       0       0       0       0       0       0       
      +0       0       0       0       0
  3400 ;;      Totals:        12       0       0       0       0       0       0       0       0       0       0       0       
      +0       0       0       0       0
  3401 ;;Total ram usage:       12 bytes
  3402 ;; Hardware stack levels used: 1
  3403 ;; Hardware stack levels required when called: 4
  3404 ;; This function calls:
  3405 ;;		Nothing
  3406 ;; This function is called by:
  3407 ;;		_cnvert_uint8_to_string
  3408 ;;		_cnvert_uint16_to_string
  3409 ;;		_cnvert_uint32_to_string
  3410 ;; This function uses a non-reentrant model
  3411 ;;
  3412                           
  3413                           	psect	text17
  3414   0025E4                     __ptext17:
  3415                           	callstack 0
  3416   0025E4                     _memset:
  3417                           	callstack 25
  3418   0025E4  C00D  F017         	movff	memset@dest,memset@s
  3419   0025E8  C00E  F018         	movff	memset@dest+1,memset@s+1
  3420   0025EC  5011               	movf	memset@n^0,w,c
  3421   0025EE  1012               	iorwf	(memset@n+1)^0,w,c
  3422   0025F0  A4D8               	btfss	status,2,c
  3423   0025F2  EFFD  F012         	goto	u4571
  3424   0025F6  EFFF  F012         	goto	u4570
  3425   0025FA                     u4571:
  3426   0025FA  EF01  F013         	goto	l4417
  3427   0025FE                     u4570:
  3428   0025FE  EFAC  F013         	goto	l1336
  3429   002602                     l4417:
  3430   002602  C017  FFD9         	movff	memset@s,fsr2l
  3431   002606  C018  FFDA         	movff	memset@s+1,fsr2h
  3432   00260A  C00F  FFDF         	movff	memset@c,indf2
  3433   00260E  5011               	movf	memset@n^0,w,c
  3434   002610  2417               	addwf	memset@s^0,w,c
  3435   002612  6E13               	movwf	??_memset^0,c
  3436   002614  5012               	movf	(memset@n+1)^0,w,c
  3437   002616  2018               	addwfc	(memset@s+1)^0,w,c
  3438   002618  6E14               	movwf	(??_memset+1)^0,c
  3439   00261A  0EFF               	movlw	255
  3440   00261C  2413               	addwf	??_memset^0,w,c
  3441   00261E  6ED9               	movwf	fsr2l,c
  3442   002620  0EFF               	movlw	255
  3443   002622  2014               	addwfc	(??_memset+1)^0,w,c
  3444   002624  6EDA               	movwf	fsr2h,c
  3445   002626  C00F  FFDF         	movff	memset@c,indf2
  3446   00262A  5012               	movf	(memset@n+1)^0,w,c
  3447   00262C  E107               	bnz	u4581
  3448   00262E  0E03               	movlw	3
  3449   002630  5C11               	subwf	memset@n^0,w,c
  3450   002632  B0D8               	btfsc	status,0,c
  3451   002634  EF1E  F013         	goto	u4581
  3452   002638  EF20  F013         	goto	u4580
  3453   00263C                     u4581:
  3454   00263C  EF22  F013         	goto	l4423
  3455   002640                     u4580:
  3456   002640  EFAC  F013         	goto	l1336
  3457   002644                     l4423:
  3458   002644  EE20 F001          	lfsr	2,1
  3459   002648  5017               	movf	memset@s^0,w,c
  3460   00264A  26D9               	addwf	fsr2l,f,c
  3461   00264C  5018               	movf	(memset@s+1)^0,w,c
  3462   00264E  22DA               	addwfc	fsr2h,f,c
  3463   002650  C00F  FFDF         	movff	memset@c,indf2
  3464   002654  EE20 F002          	lfsr	2,2
  3465   002658  5017               	movf	memset@s^0,w,c
  3466   00265A  26D9               	addwf	fsr2l,f,c
  3467   00265C  5018               	movf	(memset@s+1)^0,w,c
  3468   00265E  22DA               	addwfc	fsr2h,f,c
  3469   002660  C00F  FFDF         	movff	memset@c,indf2
  3470   002664  5011               	movf	memset@n^0,w,c
  3471   002666  2417               	addwf	memset@s^0,w,c
  3472   002668  6E13               	movwf	??_memset^0,c
  3473   00266A  5012               	movf	(memset@n+1)^0,w,c
  3474   00266C  2018               	addwfc	(memset@s+1)^0,w,c
  3475   00266E  6E14               	movwf	(??_memset+1)^0,c
  3476   002670  0EFE               	movlw	254
  3477   002672  2413               	addwf	??_memset^0,w,c
  3478   002674  6ED9               	movwf	fsr2l,c
  3479   002676  0EFF               	movlw	255
  3480   002678  2014               	addwfc	(??_memset+1)^0,w,c
  3481   00267A  6EDA               	movwf	fsr2h,c
  3482   00267C  C00F  FFDF         	movff	memset@c,indf2
  3483   002680  5011               	movf	memset@n^0,w,c
  3484   002682  2417               	addwf	memset@s^0,w,c
  3485   002684  6E13               	movwf	??_memset^0,c
  3486   002686  5012               	movf	(memset@n+1)^0,w,c
  3487   002688  2018               	addwfc	(memset@s+1)^0,w,c
  3488   00268A  6E14               	movwf	(??_memset+1)^0,c
  3489   00268C  0EFD               	movlw	253
  3490   00268E  2413               	addwf	??_memset^0,w,c
  3491   002690  6ED9               	movwf	fsr2l,c
  3492   002692  0EFF               	movlw	255
  3493   002694  2014               	addwfc	(??_memset+1)^0,w,c
  3494   002696  6EDA               	movwf	fsr2h,c
  3495   002698  C00F  FFDF         	movff	memset@c,indf2
  3496   00269C  5012               	movf	(memset@n+1)^0,w,c
  3497   00269E  E107               	bnz	u4591
  3498   0026A0  0E07               	movlw	7
  3499   0026A2  5C11               	subwf	memset@n^0,w,c
  3500   0026A4  B0D8               	btfsc	status,0,c
  3501   0026A6  EF57  F013         	goto	u4591
  3502   0026AA  EF59  F013         	goto	u4590
  3503   0026AE                     u4591:
  3504   0026AE  EF5B  F013         	goto	l4429
  3505   0026B2                     u4590:
  3506   0026B2  EFAC  F013         	goto	l1336
  3507   0026B6                     l4429:
  3508   0026B6  EE20 F003          	lfsr	2,3
  3509   0026BA  5017               	movf	memset@s^0,w,c
  3510   0026BC  26D9               	addwf	fsr2l,f,c
  3511   0026BE  5018               	movf	(memset@s+1)^0,w,c
  3512   0026C0  22DA               	addwfc	fsr2h,f,c
  3513   0026C2  C00F  FFDF         	movff	memset@c,indf2
  3514   0026C6  5011               	movf	memset@n^0,w,c
  3515   0026C8  2417               	addwf	memset@s^0,w,c
  3516   0026CA  6E13               	movwf	??_memset^0,c
  3517   0026CC  5012               	movf	(memset@n+1)^0,w,c
  3518   0026CE  2018               	addwfc	(memset@s+1)^0,w,c
  3519   0026D0  6E14               	movwf	(??_memset+1)^0,c
  3520   0026D2  0EFC               	movlw	252
  3521   0026D4  2413               	addwf	??_memset^0,w,c
  3522   0026D6  6ED9               	movwf	fsr2l,c
  3523   0026D8  0EFF               	movlw	255
  3524   0026DA  2014               	addwfc	(??_memset+1)^0,w,c
  3525   0026DC  6EDA               	movwf	fsr2h,c
  3526   0026DE  C00F  FFDF         	movff	memset@c,indf2
  3527   0026E2  5012               	movf	(memset@n+1)^0,w,c
  3528   0026E4  E107               	bnz	u4601
  3529   0026E6  0E09               	movlw	9
  3530   0026E8  5C11               	subwf	memset@n^0,w,c
  3531   0026EA  B0D8               	btfsc	status,0,c
  3532   0026EC  EF7A  F013         	goto	u4601
  3533   0026F0  EF7C  F013         	goto	u4600
  3534   0026F4                     u4601:
  3535   0026F4  EF7E  F013         	goto	l4435
  3536   0026F8                     u4600:
  3537   0026F8  EFAC  F013         	goto	l1336
  3538   0026FC                     l4435:
  3539   0026FC  C017  F013         	movff	memset@s,??_memset
  3540   002700  C018  F014         	movff	memset@s+1,??_memset+1
  3541   002704  1E13               	comf	??_memset^0,f,c
  3542   002706  1E14               	comf	(??_memset+1)^0,f,c
  3543   002708  4A13               	infsnz	??_memset^0,f,c
  3544   00270A  2A14               	incf	(??_memset+1)^0,f,c
  3545   00270C  0E03               	movlw	3
  3546   00270E  1413               	andwf	??_memset^0,w,c
  3547   002710  6E15               	movwf	memset@k^0,c
  3548   002712  6A16               	clrf	(memset@k+1)^0,c
  3549   002714  5015               	movf	memset@k^0,w,c
  3550   002716  2617               	addwf	memset@s^0,f,c
  3551   002718  5016               	movf	(memset@k+1)^0,w,c
  3552   00271A  2218               	addwfc	(memset@s+1)^0,f,c
  3553   00271C  5015               	movf	memset@k^0,w,c
  3554   00271E  5E11               	subwf	memset@n^0,f,c
  3555   002720  5016               	movf	(memset@k+1)^0,w,c
  3556   002722  5A12               	subwfb	(memset@n+1)^0,f,c
  3557   002724  0EFC               	movlw	252
  3558   002726  1611               	andwf	memset@n^0,f,c
  3559   002728  0EFF               	movlw	255
  3560   00272A  1612               	andwf	(memset@n+1)^0,f,c
  3561   00272C  EFA3  F013         	goto	l4443
  3562   002730                     l4437:
  3563   002730  C017  FFD9         	movff	memset@s,fsr2l
  3564   002734  C018  FFDA         	movff	memset@s+1,fsr2h
  3565   002738  C00F  FFDF         	movff	memset@c,indf2
  3566   00273C  0611               	decf	memset@n^0,f,c
  3567   00273E  A0D8               	btfss	status,0,c
  3568   002740  0612               	decf	(memset@n+1)^0,f,c
  3569   002742  4A17               	infsnz	memset@s^0,f,c
  3570   002744  2A18               	incf	(memset@s+1)^0,f,c
  3571   002746                     l4443:
  3572   002746  5011               	movf	memset@n^0,w,c
  3573   002748  1012               	iorwf	(memset@n+1)^0,w,c
  3574   00274A  A4D8               	btfss	status,2,c
  3575   00274C  EFAA  F013         	goto	u4611
  3576   002750  EFAC  F013         	goto	u4610
  3577   002754                     u4611:
  3578   002754  EF98  F013         	goto	l4437
  3579   002758                     u4610:
  3580   002758                     l1336:
  3581   002758  0012               	return		;funcret
  3582   00275A                     __end_of_memset:
  3583                           	callstack 0
  3584                           
  3585 ;; *************** function _application_initialize *****************
  3586 ;; Defined at:
  3587 ;;		line 141 in file "Fan_contraller.c"
  3588 ;; Parameters:    Size  Location     Type
  3589 ;;		None
  3590 ;; Auto vars:     Size  Location     Type
  3591 ;;		None
  3592 ;; Return value:  Size  Location     Type
  3593 ;;                  1    wreg      void 
  3594 ;; Registers used:
  3595 ;;		wreg, fsr2l, fsr2h, status,2, status,0, prodl, prodh, cstack
  3596 ;; Tracked objects:
  3597 ;;		On entry : 0/0
  3598 ;;		On exit  : 0/0
  3599 ;;		Unchanged: 0/0
  3600 ;; Data sizes:     COMRAM   BANK0   BANK1   BANK2   BANK3   BANK4   BANK5   BANK6   BANK7   BANK8   BANK9  BANK10  BANK1
      +1  BANK12  BANK13  BANK14  BANK15
  3601 ;;      Params:         0       0       0       0       0       0       0       0       0       0       0       0       
      +0       0       0       0       0
  3602 ;;      Locals:         0       0       0       0       0       0       0       0       0       0       0       0       
      +0       0       0       0       0
  3603 ;;      Temps:          0       0       0       0       0       0       0       0       0       0       0       0       
      +0       0       0       0       0
  3604 ;;      Totals:         0       0       0       0       0       0       0       0       0       0       0       0       
      +0       0       0       0       0
  3605 ;;Total ram usage:        0 bytes
  3606 ;; Hardware stack levels used: 1
  3607 ;; Hardware stack levels required when called: 8
  3608 ;; This function calls:
  3609 ;;		_CCP_Init
  3610 ;;		_Timer2_init
  3611 ;;		_adc_init
  3612 ;;		_lcd_pins_4_initialize
  3613 ;;		_motor_initialize
  3614 ;; This function is called by:
  3615 ;;		_main
  3616 ;; This function uses a non-reentrant model
  3617 ;;
  3618                           
  3619                           	psect	text18
  3620   003A76                     __ptext18:
  3621                           	callstack 0
  3622   003A76                     _application_initialize:
  3623                           	callstack 22
  3624   003A76                     
  3625                           ;Fan_contraller.c: 142:     lcd_pins_4_initialize(&lcd_4bit);
  3626   003A76  0EB3               	movlw	low _lcd_4bit
  3627   003A78  6E1F               	movwf	lcd_pins_4_initialize@lcd^0,c
  3628   003A7A  0E00               	movlw	high _lcd_4bit
  3629   003A7C  6E20               	movwf	(lcd_pins_4_initialize@lcd+1)^0,c
  3630   003A7E  ECC0  F016         	call	_lcd_pins_4_initialize	;wreg free
  3631                           
  3632                           ;Fan_contraller.c: 143:     motor_initialize(&motor);
  3633   003A82  0EB9               	movlw	low _motor
  3634   003A84  6E1B               	movwf	motor_initialize@motor^0,c
  3635   003A86  0E00               	movlw	high _motor
  3636   003A88  6E1C               	movwf	(motor_initialize@motor+1)^0,c
  3637   003A8A  ECB7  F01D         	call	_motor_initialize	;wreg free
  3638                           
  3639                           ;Fan_contraller.c: 144:     adc_init(&adc_0);
  3640   003A8E  0EAB               	movlw	low _adc_0
  3641   003A90  6E16               	movwf	adc_init@adc_confg^0,c
  3642   003A92  0E00               	movlw	high _adc_0
  3643   003A94  6E17               	movwf	(adc_init@adc_confg+1)^0,c
  3644   003A96  EC9A  F015         	call	_adc_init	;wreg free
  3645                           
  3646                           ;Fan_contraller.c: 145:     CCP_Init(&ccp_pwm_obj);
  3647   003A9A  0E9E               	movlw	low _ccp_pwm_obj
  3648   003A9C  0100               	movlb	0	; () banked
  3649   003A9E  6FEE               	movwf	CCP_Init@ccp_obj& (0+255),b
  3650   003AA0  0E00               	movlw	high _ccp_pwm_obj
  3651   003AA2  6FEF               	movwf	(CCP_Init@ccp_obj+1)& (0+255),b
  3652   003AA4  EC65  F014         	call	_CCP_Init	;wreg free
  3653   003AA8                     
  3654                           ;Fan_contraller.c: 146:     Timer2_init(&timer2_obj);
  3655   003AA8  0ED6               	movlw	low _timer2_obj
  3656   003AAA  6E10               	movwf	Timer2_init@timer2^0,c
  3657   003AAC  0E00               	movlw	high _timer2_obj
  3658   003AAE  6E11               	movwf	(Timer2_init@timer2+1)^0,c
  3659   003AB0  ECB0  F01C         	call	_Timer2_init	;wreg free
  3660   003AB4  0012               	return		;funcret
  3661   003AB6                     __end_of_application_initialize:
  3662                           	callstack 0
  3663                           
  3664 ;; *************** function _motor_initialize *****************
  3665 ;; Defined at:
  3666 ;;		line 16 in file "ECU_layer/Motor/ecu_motor.c"
  3667 ;; Parameters:    Size  Location     Type
  3668 ;;  motor           2   26[COMRAM] PTR const struct .
  3669 ;;		 -> motor(2), 
  3670 ;; Auto vars:     Size  Location     Type
  3671 ;;  ret             1    0        unsigned char 
  3672 ;; Return value:  Size  Location     Type
  3673 ;;                  1    wreg      unsigned char 
  3674 ;; Registers used:
  3675 ;;		wreg, fsr2l, fsr2h, status,2, status,0, prodl, prodh, cstack
  3676 ;; Tracked objects:
  3677 ;;		On entry : 0/0
  3678 ;;		On exit  : 0/0
  3679 ;;		Unchanged: 0/0
  3680 ;; Data sizes:     COMRAM   BANK0   BANK1   BANK2   BANK3   BANK4   BANK5   BANK6   BANK7   BANK8   BANK9  BANK10  BANK1
      +1  BANK12  BANK13  BANK14  BANK15
  3681 ;;      Params:         2       0       0       0       0       0       0       0       0       0       0       0       
      +0       0       0       0       0
  3682 ;;      Locals:         0       0       0       0       0       0       0       0       0       0       0       0       
      +0       0       0       0       0
  3683 ;;      Temps:          0       0       0       0       0       0       0       0       0       0       0       0       
      +0       0       0       0       0
  3684 ;;      Totals:         2       0       0       0       0       0       0       0       0       0       0       0       
      +0       0       0       0       0
  3685 ;;Total ram usage:        2 bytes
  3686 ;; Hardware stack levels used: 1
  3687 ;; Hardware stack levels required when called: 6
  3688 ;; This function calls:
  3689 ;;		_gpio_pin_intialize
  3690 ;; This function is called by:
  3691 ;;		_application_initialize
  3692 ;; This function uses a non-reentrant model
  3693 ;;
  3694                           
  3695                           	psect	text19
  3696   003B6E                     __ptext19:
  3697                           	callstack 0
  3698   003B6E                     _motor_initialize:
  3699                           	callstack 23
  3700   003B6E                     
  3701                           ;ECU_layer/Motor/ecu_motor.c: 18:     if(((void*)0) == motor)
  3702   003B6E  501B               	movf	motor_initialize@motor^0,w,c
  3703   003B70  101C               	iorwf	(motor_initialize@motor+1)^0,w,c
  3704   003B72  A4D8               	btfss	status,2,c
  3705   003B74  EFBE  F01D         	goto	u4621
  3706   003B78  EFC0  F01D         	goto	u4620
  3707   003B7C                     u4621:
  3708   003B7C  EFC2  F01D         	goto	l4463
  3709   003B80                     u4620:
  3710   003B80  EFD0  F01D         	goto	l196
  3711   003B84                     l4463:
  3712                           
  3713                           ;ECU_layer/Motor/ecu_motor.c: 21:         gpio_pin_intialize(&(motor->motor_confg[0]));
  3714   003B84  C01B  F017         	movff	motor_initialize@motor,gpio_pin_intialize@Pin_Config
  3715   003B88  C01C  F018         	movff	motor_initialize@motor+1,gpio_pin_intialize@Pin_Config+1
  3716   003B8C  ECDE  F01B         	call	_gpio_pin_intialize	;wreg free
  3717                           
  3718                           ;ECU_layer/Motor/ecu_motor.c: 22:         gpio_pin_intialize(&(motor->motor_confg[1]));
  3719   003B90  0E01               	movlw	1
  3720   003B92  241B               	addwf	motor_initialize@motor^0,w,c
  3721   003B94  6E17               	movwf	gpio_pin_intialize@Pin_Config^0,c
  3722   003B96  0E00               	movlw	0
  3723   003B98  201C               	addwfc	(motor_initialize@motor+1)^0,w,c
  3724   003B9A  6E18               	movwf	(gpio_pin_intialize@Pin_Config+1)^0,c
  3725   003B9C  ECDE  F01B         	call	_gpio_pin_intialize	;wreg free
  3726   003BA0                     l196:
  3727   003BA0  0012               	return		;funcret
  3728   003BA2                     __end_of_motor_initialize:
  3729                           	callstack 0
  3730                           
  3731 ;; *************** function _lcd_pins_4_initialize *****************
  3732 ;; Defined at:
  3733 ;;		line 21 in file "ECU_layer/LCD/ecu_lcd.c"
  3734 ;; Parameters:    Size  Location     Type
  3735 ;;  lcd             2   30[COMRAM] PTR const struct .
  3736 ;;		 -> lcd_4bit(6), 
  3737 ;; Auto vars:     Size  Location     Type
  3738 ;;  cnt_pin         1   35[COMRAM] unsigned char 
  3739 ;;  ret             1   34[COMRAM] unsigned char 
  3740 ;; Return value:  Size  Location     Type
  3741 ;;                  1    wreg      unsigned char 
  3742 ;; Registers used:
  3743 ;;		wreg, fsr2l, fsr2h, status,2, status,0, prodl, prodh, cstack
  3744 ;; Tracked objects:
  3745 ;;		On entry : 0/0
  3746 ;;		On exit  : 0/0
  3747 ;;		Unchanged: 0/0
  3748 ;; Data sizes:     COMRAM   BANK0   BANK1   BANK2   BANK3   BANK4   BANK5   BANK6   BANK7   BANK8   BANK9  BANK10  BANK1
      +1  BANK12  BANK13  BANK14  BANK15
  3749 ;;      Params:         2       0       0       0       0       0       0       0       0       0       0       0       
      +0       0       0       0       0
  3750 ;;      Locals:         2       0       0       0       0       0       0       0       0       0       0       0       
      +0       0       0       0       0
  3751 ;;      Temps:          2       0       0       0       0       0       0       0       0       0       0       0       
      +0       0       0       0       0
  3752 ;;      Totals:         6       0       0       0       0       0       0       0       0       0       0       0       
      +0       0       0       0       0
  3753 ;;Total ram usage:        6 bytes
  3754 ;; Hardware stack levels used: 1
  3755 ;; Hardware stack levels required when called: 7
  3756 ;; This function calls:
  3757 ;;		_gpio_pin_intialize
  3758 ;;		_send_4_bit_command
  3759 ;; This function is called by:
  3760 ;;		_application_initialize
  3761 ;; This function uses a non-reentrant model
  3762 ;;
  3763                           
  3764                           	psect	text20
  3765   002D80                     __ptext20:
  3766                           	callstack 0
  3767   002D80                     _lcd_pins_4_initialize:
  3768                           	callstack 22
  3769   002D80                     
  3770                           ;ECU_layer/LCD/ecu_lcd.c: 23:     if(((void*)0) == lcd)
  3771   002D80  501F               	movf	lcd_pins_4_initialize@lcd^0,w,c
  3772   002D82  1020               	iorwf	(lcd_pins_4_initialize@lcd+1)^0,w,c
  3773   002D84  A4D8               	btfss	status,2,c
  3774   002D86  EFC7  F016         	goto	u4411
  3775   002D8A  EFC9  F016         	goto	u4410
  3776   002D8E                     u4411:
  3777   002D8E  EFCB  F016         	goto	l4283
  3778   002D92                     u4410:
  3779   002D92  EF4F  F017         	goto	l31
  3780   002D96                     l4283:
  3781                           
  3782                           ;ECU_layer/LCD/ecu_lcd.c: 26:     {;ECU_layer/LCD/ecu_lcd.c: 27:         ret = gpio_pin_
      +                          intialize(&(lcd->rs_lcd));
  3783   002D96  C01F  F017         	movff	lcd_pins_4_initialize@lcd,gpio_pin_intialize@Pin_Config
  3784   002D9A  C020  F018         	movff	lcd_pins_4_initialize@lcd+1,gpio_pin_intialize@Pin_Config+1
  3785   002D9E  ECDE  F01B         	call	_gpio_pin_intialize	;wreg free
  3786   002DA2  6E23               	movwf	lcd_pins_4_initialize@ret^0,c
  3787                           
  3788                           ;ECU_layer/LCD/ecu_lcd.c: 28:         ret = gpio_pin_intialize(&(lcd->en_lcd));
  3789   002DA4  0E05               	movlw	5
  3790   002DA6  241F               	addwf	lcd_pins_4_initialize@lcd^0,w,c
  3791   002DA8  6E17               	movwf	gpio_pin_intialize@Pin_Config^0,c
  3792   002DAA  0E00               	movlw	0
  3793   002DAC  2020               	addwfc	(lcd_pins_4_initialize@lcd+1)^0,w,c
  3794   002DAE  6E18               	movwf	(gpio_pin_intialize@Pin_Config+1)^0,c
  3795   002DB0  ECDE  F01B         	call	_gpio_pin_intialize	;wreg free
  3796   002DB4  6E23               	movwf	lcd_pins_4_initialize@ret^0,c
  3797   002DB6                     
  3798                           ;ECU_layer/LCD/ecu_lcd.c: 29:         for(uint8 cnt_pin = 0; cnt_pin < 4; cnt_pin++)
  3799   002DB6  0E00               	movlw	0
  3800   002DB8  6E24               	movwf	lcd_pins_4_initialize@cnt_pin^0,c
  3801   002DBA                     l4291:
  3802   002DBA  5024               	movf	lcd_pins_4_initialize@cnt_pin^0,w,c
  3803   002DBC  241F               	addwf	lcd_pins_4_initialize@lcd^0,w,c
  3804   002DBE  6E21               	movwf	??_lcd_pins_4_initialize^0,c
  3805   002DC0  0E00               	movlw	0
  3806   002DC2  2020               	addwfc	(lcd_pins_4_initialize@lcd+1)^0,w,c
  3807   002DC4  6E22               	movwf	(??_lcd_pins_4_initialize+1)^0,c
  3808   002DC6  0E01               	movlw	1
  3809   002DC8  2421               	addwf	??_lcd_pins_4_initialize^0,w,c
  3810   002DCA  6E17               	movwf	gpio_pin_intialize@Pin_Config^0,c
  3811   002DCC  0E00               	movlw	0
  3812   002DCE  2022               	addwfc	(??_lcd_pins_4_initialize+1)^0,w,c
  3813   002DD0  6E18               	movwf	(gpio_pin_intialize@Pin_Config+1)^0,c
  3814   002DD2  ECDE  F01B         	call	_gpio_pin_intialize	;wreg free
  3815   002DD6  2A24               	incf	lcd_pins_4_initialize@cnt_pin^0,f,c
  3816   002DD8  0E03               	movlw	3
  3817   002DDA  6424               	cpfsgt	lcd_pins_4_initialize@cnt_pin^0,c
  3818   002DDC  EFF2  F016         	goto	u4421
  3819   002DE0  EFF4  F016         	goto	u4420
  3820   002DE4                     u4421:
  3821   002DE4  EFDD  F016         	goto	l4291
  3822   002DE8                     u4420:
  3823   002DE8                     
  3824                           ;ECU_layer/LCD/ecu_lcd.c: 32:         _delay((unsigned long)((20)*(4000000UL/4000.0)));
  3825   002DE8  0E1A               	movlw	26
  3826   002DEA  6E21               	movwf	??_lcd_pins_4_initialize^0,c
  3827   002DEC  0EF8               	movlw	248
  3828   002DEE                     u6607:
  3829   002DEE  2EE8               	decfsz	wreg,f,c
  3830   002DF0  D7FE               	bra	u6607
  3831   002DF2  2E21               	decfsz	??_lcd_pins_4_initialize^0,f,c
  3832   002DF4  D7FC               	bra	u6607
  3833   002DF6  D000               	nop2	
  3834   002DF8  C01F  F01B         	movff	lcd_pins_4_initialize@lcd,send_4_bit_command@lcd
  3835   002DFC  C020  F01C         	movff	lcd_pins_4_initialize@lcd+1,send_4_bit_command@lcd+1
  3836   002E00  0E38               	movlw	56
  3837   002E02  6E1D               	movwf	send_4_bit_command@command^0,c
  3838   002E04  ECA5  F01B         	call	_send_4_bit_command	;wreg free
  3839   002E08                     
  3840                           ;ECU_layer/LCD/ecu_lcd.c: 34:         _delay((unsigned long)((5)*(4000000UL/4000.0)));
  3841   002E08  0E07               	movlw	7
  3842   002E0A  6E21               	movwf	??_lcd_pins_4_initialize^0,c
  3843   002E0C  0E7D               	movlw	125
  3844   002E0E                     u6617:
  3845   002E0E  2EE8               	decfsz	wreg,f,c
  3846   002E10  D7FE               	bra	u6617
  3847   002E12  2E21               	decfsz	??_lcd_pins_4_initialize^0,f,c
  3848   002E14  D7FC               	bra	u6617
  3849   002E16  F000               	nop	
  3850   002E18  C01F  F01B         	movff	lcd_pins_4_initialize@lcd,send_4_bit_command@lcd
  3851   002E1C  C020  F01C         	movff	lcd_pins_4_initialize@lcd+1,send_4_bit_command@lcd+1
  3852   002E20  0E38               	movlw	56
  3853   002E22  6E1D               	movwf	send_4_bit_command@command^0,c
  3854   002E24  ECA5  F01B         	call	_send_4_bit_command	;wreg free
  3855   002E28                     
  3856                           ;ECU_layer/LCD/ecu_lcd.c: 36:         _delay((unsigned long)((150)*(4000000UL/4000000.0)
      +                          ));
  3857   002E28  0E32               	movlw	50
  3858   002E2A                     u6627:
  3859   002E2A  2EE8               	decfsz	wreg,f,c
  3860   002E2C  D7FE               	bra	u6627
  3861   002E2E  C01F  F01B         	movff	lcd_pins_4_initialize@lcd,send_4_bit_command@lcd
  3862   002E32  C020  F01C         	movff	lcd_pins_4_initialize@lcd+1,send_4_bit_command@lcd+1
  3863   002E36  0E38               	movlw	56
  3864   002E38  6E1D               	movwf	send_4_bit_command@command^0,c
  3865   002E3A  ECA5  F01B         	call	_send_4_bit_command	;wreg free
  3866   002E3E  C01F  F01B         	movff	lcd_pins_4_initialize@lcd,send_4_bit_command@lcd
  3867   002E42  C020  F01C         	movff	lcd_pins_4_initialize@lcd+1,send_4_bit_command@lcd+1
  3868   002E46  0E01               	movlw	1
  3869   002E48  6E1D               	movwf	send_4_bit_command@command^0,c
  3870   002E4A  ECA5  F01B         	call	_send_4_bit_command	;wreg free
  3871   002E4E  C01F  F01B         	movff	lcd_pins_4_initialize@lcd,send_4_bit_command@lcd
  3872   002E52  C020  F01C         	movff	lcd_pins_4_initialize@lcd+1,send_4_bit_command@lcd+1
  3873   002E56  0E02               	movlw	2
  3874   002E58  6E1D               	movwf	send_4_bit_command@command^0,c
  3875   002E5A  ECA5  F01B         	call	_send_4_bit_command	;wreg free
  3876   002E5E  C01F  F01B         	movff	lcd_pins_4_initialize@lcd,send_4_bit_command@lcd
  3877   002E62  C020  F01C         	movff	lcd_pins_4_initialize@lcd+1,send_4_bit_command@lcd+1
  3878   002E66  0E06               	movlw	6
  3879   002E68  6E1D               	movwf	send_4_bit_command@command^0,c
  3880   002E6A  ECA5  F01B         	call	_send_4_bit_command	;wreg free
  3881   002E6E  C01F  F01B         	movff	lcd_pins_4_initialize@lcd,send_4_bit_command@lcd
  3882   002E72  C020  F01C         	movff	lcd_pins_4_initialize@lcd+1,send_4_bit_command@lcd+1
  3883   002E76  0E0C               	movlw	12
  3884   002E78  6E1D               	movwf	send_4_bit_command@command^0,c
  3885   002E7A  ECA5  F01B         	call	_send_4_bit_command	;wreg free
  3886   002E7E  C01F  F01B         	movff	lcd_pins_4_initialize@lcd,send_4_bit_command@lcd
  3887   002E82  C020  F01C         	movff	lcd_pins_4_initialize@lcd+1,send_4_bit_command@lcd+1
  3888   002E86  0E28               	movlw	40
  3889   002E88  6E1D               	movwf	send_4_bit_command@command^0,c
  3890   002E8A  ECA5  F01B         	call	_send_4_bit_command	;wreg free
  3891   002E8E                     
  3892                           ;ECU_layer/LCD/ecu_lcd.c: 43:         send_4_bit_command(lcd, 0x80);
  3893   002E8E  C01F  F01B         	movff	lcd_pins_4_initialize@lcd,send_4_bit_command@lcd
  3894   002E92  C020  F01C         	movff	lcd_pins_4_initialize@lcd+1,send_4_bit_command@lcd+1
  3895   002E96  0E80               	movlw	128
  3896   002E98  6E1D               	movwf	send_4_bit_command@command^0,c
  3897   002E9A  ECA5  F01B         	call	_send_4_bit_command	;wreg free
  3898   002E9E                     l31:
  3899   002E9E  0012               	return		;funcret
  3900   002EA0                     __end_of_lcd_pins_4_initialize:
  3901                           	callstack 0
  3902                           
  3903 ;; *************** function _send_4_bit_command *****************
  3904 ;; Defined at:
  3905 ;;		line 47 in file "ECU_layer/LCD/ecu_lcd.c"
  3906 ;; Parameters:    Size  Location     Type
  3907 ;;  lcd             2   26[COMRAM] PTR const struct .
  3908 ;;		 -> lcd_4bit(6), 
  3909 ;;  command         1   28[COMRAM] unsigned char 
  3910 ;; Auto vars:     Size  Location     Type
  3911 ;;  ret             1   29[COMRAM] unsigned char 
  3912 ;; Return value:  Size  Location     Type
  3913 ;;                  1    wreg      unsigned char 
  3914 ;; Registers used:
  3915 ;;		wreg, fsr2l, fsr2h, status,2, status,0, prodl, prodh, cstack
  3916 ;; Tracked objects:
  3917 ;;		On entry : 0/0
  3918 ;;		On exit  : 0/0
  3919 ;;		Unchanged: 0/0
  3920 ;; Data sizes:     COMRAM   BANK0   BANK1   BANK2   BANK3   BANK4   BANK5   BANK6   BANK7   BANK8   BANK9  BANK10  BANK1
      +1  BANK12  BANK13  BANK14  BANK15
  3921 ;;      Params:         3       0       0       0       0       0       0       0       0       0       0       0       
      +0       0       0       0       0
  3922 ;;      Locals:         1       0       0       0       0       0       0       0       0       0       0       0       
      +0       0       0       0       0
  3923 ;;      Temps:          0       0       0       0       0       0       0       0       0       0       0       0       
      +0       0       0       0       0
  3924 ;;      Totals:         4       0       0       0       0       0       0       0       0       0       0       0       
      +0       0       0       0       0
  3925 ;;Total ram usage:        4 bytes
  3926 ;; Hardware stack levels used: 1
  3927 ;; Hardware stack levels required when called: 6
  3928 ;; This function calls:
  3929 ;;		_gpio_pin_write_logic
  3930 ;;		_send_4_bit_enable
  3931 ;;		_send_4_bit_help
  3932 ;; This function is called by:
  3933 ;;		_lcd_pins_4_initialize
  3934 ;;		_lcd_4_bit_set_cursor
  3935 ;;		_send_4_bit_custome_char_data_pos
  3936 ;; This function uses a non-reentrant model
  3937 ;;
  3938                           
  3939                           	psect	text21
  3940   00374A                     __ptext21:
  3941                           	callstack 0
  3942   00374A                     _send_4_bit_command:
  3943                           	callstack 22
  3944   00374A                     
  3945                           ;ECU_layer/LCD/ecu_lcd.c: 49:     if(((void*)0) == lcd)
  3946   00374A  501B               	movf	send_4_bit_command@lcd^0,w,c
  3947   00374C  101C               	iorwf	(send_4_bit_command@lcd+1)^0,w,c
  3948   00374E  A4D8               	btfss	status,2,c
  3949   003750  EFAC  F01B         	goto	u4271
  3950   003754  EFAE  F01B         	goto	u4270
  3951   003758                     u4271:
  3952   003758  EFB2  F01B         	goto	l4163
  3953   00375C                     u4270:
  3954   00375C                     
  3955                           ;ECU_layer/LCD/ecu_lcd.c: 50:         ret = (Std_ReturnType)0x00;
  3956   00375C  0E00               	movlw	0
  3957   00375E  6E1E               	movwf	send_4_bit_command@ret^0,c
  3958   003760  EFDC  F01B         	goto	l4165
  3959   003764                     l4163:
  3960                           
  3961                           ;ECU_layer/LCD/ecu_lcd.c: 52:     {;ECU_layer/LCD/ecu_lcd.c: 53:         ret = gpio_pin_
      +                          write_logic(&(lcd->rs_lcd),LOW);
  3962   003764  C01B  F00D         	movff	send_4_bit_command@lcd,gpio_pin_write_logic@Pin_Config
  3963   003768  C01C  F00E         	movff	send_4_bit_command@lcd+1,gpio_pin_write_logic@Pin_Config+1
  3964   00376C  0E00               	movlw	0
  3965   00376E  6E0F               	movwf	gpio_pin_write_logic@logic^0,c
  3966   003770  EC50  F017         	call	_gpio_pin_write_logic	;wreg free
  3967   003774  6E1E               	movwf	send_4_bit_command@ret^0,c
  3968                           
  3969                           ;ECU_layer/LCD/ecu_lcd.c: 54:         ret = send_4_bit_help(lcd,command >> 4);
  3970   003776  C01B  F017         	movff	send_4_bit_command@lcd,send_4_bit_help@lcd
  3971   00377A  C01C  F018         	movff	send_4_bit_command@lcd+1,send_4_bit_help@lcd+1
  3972   00377E  381D               	swapf	send_4_bit_command@command^0,w,c
  3973   003780  0B0F               	andlw	15
  3974   003782  6E19               	movwf	send_4_bit_help@data_command^0,c
  3975   003784  ECEB  F01A         	call	_send_4_bit_help	;wreg free
  3976   003788  6E1E               	movwf	send_4_bit_command@ret^0,c
  3977                           
  3978                           ;ECU_layer/LCD/ecu_lcd.c: 55:         ret = send_4_bit_enable(lcd);
  3979   00378A  C01B  F017         	movff	send_4_bit_command@lcd,send_4_bit_enable@lcd
  3980   00378E  C01C  F018         	movff	send_4_bit_command@lcd+1,send_4_bit_enable@lcd+1
  3981   003792  EC63  F01C         	call	_send_4_bit_enable	;wreg free
  3982   003796  6E1E               	movwf	send_4_bit_command@ret^0,c
  3983                           
  3984                           ;ECU_layer/LCD/ecu_lcd.c: 56:         ret = send_4_bit_help(lcd,command);
  3985   003798  C01B  F017         	movff	send_4_bit_command@lcd,send_4_bit_help@lcd
  3986   00379C  C01C  F018         	movff	send_4_bit_command@lcd+1,send_4_bit_help@lcd+1
  3987   0037A0  C01D  F019         	movff	send_4_bit_command@command,send_4_bit_help@data_command
  3988   0037A4  ECEB  F01A         	call	_send_4_bit_help	;wreg free
  3989   0037A8  6E1E               	movwf	send_4_bit_command@ret^0,c
  3990                           
  3991                           ;ECU_layer/LCD/ecu_lcd.c: 57:         ret = send_4_bit_enable(lcd);
  3992   0037AA  C01B  F017         	movff	send_4_bit_command@lcd,send_4_bit_enable@lcd
  3993   0037AE  C01C  F018         	movff	send_4_bit_command@lcd+1,send_4_bit_enable@lcd+1
  3994   0037B2  EC63  F01C         	call	_send_4_bit_enable	;wreg free
  3995   0037B6  6E1E               	movwf	send_4_bit_command@ret^0,c
  3996   0037B8                     l4165:
  3997                           
  3998                           ;ECU_layer/LCD/ecu_lcd.c: 59:              return ret;
  3999   0037B8  501E               	movf	send_4_bit_command@ret^0,w,c
  4000   0037BA  0012               	return		;funcret
  4001   0037BC                     __end_of_send_4_bit_command:
  4002                           	callstack 0
  4003                           
  4004 ;; *************** function _send_4_bit_help *****************
  4005 ;; Defined at:
  4006 ;;		line 125 in file "ECU_layer/LCD/ecu_lcd.c"
  4007 ;; Parameters:    Size  Location     Type
  4008 ;;  lcd             2   22[COMRAM] PTR const struct .
  4009 ;;		 -> lcd_4bit(6), 
  4010 ;;  data_command    1   24[COMRAM] unsigned char 
  4011 ;; Auto vars:     Size  Location     Type
  4012 ;;  ret             1   25[COMRAM] unsigned char 
  4013 ;; Return value:  Size  Location     Type
  4014 ;;                  1    wreg      unsigned char 
  4015 ;; Registers used:
  4016 ;;		wreg, fsr2l, fsr2h, status,2, status,0, prodl, prodh, cstack
  4017 ;; Tracked objects:
  4018 ;;		On entry : 0/0
  4019 ;;		On exit  : 0/0
  4020 ;;		Unchanged: 0/0
  4021 ;; Data sizes:     COMRAM   BANK0   BANK1   BANK2   BANK3   BANK4   BANK5   BANK6   BANK7   BANK8   BANK9  BANK10  BANK1
      +1  BANK12  BANK13  BANK14  BANK15
  4022 ;;      Params:         3       0       0       0       0       0       0       0       0       0       0       0       
      +0       0       0       0       0
  4023 ;;      Locals:         1       0       0       0       0       0       0       0       0       0       0       0       
      +0       0       0       0       0
  4024 ;;      Temps:          0       0       0       0       0       0       0       0       0       0       0       0       
      +0       0       0       0       0
  4025 ;;      Totals:         4       0       0       0       0       0       0       0       0       0       0       0       
      +0       0       0       0       0
  4026 ;;Total ram usage:        4 bytes
  4027 ;; Hardware stack levels used: 1
  4028 ;; Hardware stack levels required when called: 5
  4029 ;; This function calls:
  4030 ;;		_gpio_pin_write_logic
  4031 ;; This function is called by:
  4032 ;;		_send_4_bit_command
  4033 ;;		_send_4_bit_char_data
  4034 ;; This function uses a non-reentrant model
  4035 ;;
  4036                           
  4037                           	psect	text22
  4038   0035D6                     __ptext22:
  4039                           	callstack 0
  4040   0035D6                     _send_4_bit_help:
  4041                           	callstack 23
  4042   0035D6                     
  4043                           ;ECU_layer/LCD/ecu_lcd.c: 127:     if(((void*)0) == lcd)
  4044   0035D6  5017               	movf	send_4_bit_help@lcd^0,w,c
  4045   0035D8  1018               	iorwf	(send_4_bit_help@lcd+1)^0,w,c
  4046   0035DA  A4D8               	btfss	status,2,c
  4047   0035DC  EFF2  F01A         	goto	u3151
  4048   0035E0  EFF4  F01A         	goto	u3150
  4049   0035E4                     u3151:
  4050   0035E4  EFF8  F01A         	goto	l3499
  4051   0035E8                     u3150:
  4052   0035E8                     
  4053                           ;ECU_layer/LCD/ecu_lcd.c: 128:         ret = (Std_ReturnType)0x00;
  4054   0035E8  0E00               	movlw	0
  4055   0035EA  6E1A               	movwf	send_4_bit_help@ret^0,c
  4056   0035EC  EF2D  F01B         	goto	l3501
  4057   0035F0                     l3499:
  4058                           
  4059                           ;ECU_layer/LCD/ecu_lcd.c: 130:     {;ECU_layer/LCD/ecu_lcd.c: 131:            ret = gpio
      +                          _pin_write_logic(&(lcd->lcd_pin[0]),((data_command >> 0)& (uint8)0x01));
  4060   0035F0  0E01               	movlw	1
  4061   0035F2  2417               	addwf	send_4_bit_help@lcd^0,w,c
  4062   0035F4  6E0D               	movwf	gpio_pin_write_logic@Pin_Config^0,c
  4063   0035F6  0E00               	movlw	0
  4064   0035F8  2018               	addwfc	(send_4_bit_help@lcd+1)^0,w,c
  4065   0035FA  6E0E               	movwf	(gpio_pin_write_logic@Pin_Config+1)^0,c
  4066   0035FC  5019               	movf	send_4_bit_help@data_command^0,w,c
  4067   0035FE  0B01               	andlw	1
  4068   003600  6E0F               	movwf	gpio_pin_write_logic@logic^0,c
  4069   003602  EC50  F017         	call	_gpio_pin_write_logic	;wreg free
  4070   003606  6E1A               	movwf	send_4_bit_help@ret^0,c
  4071                           
  4072                           ;ECU_layer/LCD/ecu_lcd.c: 132:            ret = gpio_pin_write_logic(&(lcd->lcd_pin[1]),
      +                          ((data_command >> 1)& (uint8)0x01));
  4073   003608  0E02               	movlw	2
  4074   00360A  2417               	addwf	send_4_bit_help@lcd^0,w,c
  4075   00360C  6E0D               	movwf	gpio_pin_write_logic@Pin_Config^0,c
  4076   00360E  0E00               	movlw	0
  4077   003610  2018               	addwfc	(send_4_bit_help@lcd+1)^0,w,c
  4078   003612  6E0E               	movwf	(gpio_pin_write_logic@Pin_Config+1)^0,c
  4079   003614  90D8               	bcf	status,0,c
  4080   003616  3019               	rrcf	send_4_bit_help@data_command^0,w,c
  4081   003618  0B01               	andlw	1
  4082   00361A  6E0F               	movwf	gpio_pin_write_logic@logic^0,c
  4083   00361C  EC50  F017         	call	_gpio_pin_write_logic	;wreg free
  4084   003620  6E1A               	movwf	send_4_bit_help@ret^0,c
  4085                           
  4086                           ;ECU_layer/LCD/ecu_lcd.c: 133:            ret = gpio_pin_write_logic(&(lcd->lcd_pin[2]),
      +                          ((data_command >> 2)& (uint8)0x01));
  4087   003622  0E03               	movlw	3
  4088   003624  2417               	addwf	send_4_bit_help@lcd^0,w,c
  4089   003626  6E0D               	movwf	gpio_pin_write_logic@Pin_Config^0,c
  4090   003628  0E00               	movlw	0
  4091   00362A  2018               	addwfc	(send_4_bit_help@lcd+1)^0,w,c
  4092   00362C  6E0E               	movwf	(gpio_pin_write_logic@Pin_Config+1)^0,c
  4093   00362E  4019               	rrncf	send_4_bit_help@data_command^0,w,c
  4094   003630  42E8               	rrncf	wreg,f,c
  4095   003632  0B3F               	andlw	63
  4096   003634  0B01               	andlw	1
  4097   003636  6E0F               	movwf	gpio_pin_write_logic@logic^0,c
  4098   003638  EC50  F017         	call	_gpio_pin_write_logic	;wreg free
  4099   00363C  6E1A               	movwf	send_4_bit_help@ret^0,c
  4100                           
  4101                           ;ECU_layer/LCD/ecu_lcd.c: 134:            ret = gpio_pin_write_logic(&(lcd->lcd_pin[3]),
      +                          ((data_command >> 3)& (uint8)0x01));
  4102   00363E  0E04               	movlw	4
  4103   003640  2417               	addwf	send_4_bit_help@lcd^0,w,c
  4104   003642  6E0D               	movwf	gpio_pin_write_logic@Pin_Config^0,c
  4105   003644  0E00               	movlw	0
  4106   003646  2018               	addwfc	(send_4_bit_help@lcd+1)^0,w,c
  4107   003648  6E0E               	movwf	(gpio_pin_write_logic@Pin_Config+1)^0,c
  4108   00364A  3819               	swapf	send_4_bit_help@data_command^0,w,c
  4109   00364C  46E8               	rlncf	wreg,f,c
  4110   00364E  0B1F               	andlw	31
  4111   003650  0B01               	andlw	1
  4112   003652  6E0F               	movwf	gpio_pin_write_logic@logic^0,c
  4113   003654  EC50  F017         	call	_gpio_pin_write_logic	;wreg free
  4114   003658  6E1A               	movwf	send_4_bit_help@ret^0,c
  4115   00365A                     l3501:
  4116                           
  4117                           ;ECU_layer/LCD/ecu_lcd.c: 136:              return ret;
  4118   00365A  501A               	movf	send_4_bit_help@ret^0,w,c
  4119   00365C  0012               	return		;funcret
  4120   00365E                     __end_of_send_4_bit_help:
  4121                           	callstack 0
  4122                           
  4123 ;; *************** function _send_4_bit_enable *****************
  4124 ;; Defined at:
  4125 ;;		line 75 in file "ECU_layer/LCD/ecu_lcd.c"
  4126 ;; Parameters:    Size  Location     Type
  4127 ;;  lcd             2   22[COMRAM] PTR const struct .
  4128 ;;		 -> lcd_4bit(6), 
  4129 ;; Auto vars:     Size  Location     Type
  4130 ;;  ret             1   24[COMRAM] unsigned char 
  4131 ;; Return value:  Size  Location     Type
  4132 ;;                  1    wreg      unsigned char 
  4133 ;; Registers used:
  4134 ;;		wreg, fsr2l, fsr2h, status,2, status,0, prodl, prodh, cstack
  4135 ;; Tracked objects:
  4136 ;;		On entry : 0/0
  4137 ;;		On exit  : 0/0
  4138 ;;		Unchanged: 0/0
  4139 ;; Data sizes:     COMRAM   BANK0   BANK1   BANK2   BANK3   BANK4   BANK5   BANK6   BANK7   BANK8   BANK9  BANK10  BANK1
      +1  BANK12  BANK13  BANK14  BANK15
  4140 ;;      Params:         2       0       0       0       0       0       0       0       0       0       0       0       
      +0       0       0       0       0
  4141 ;;      Locals:         1       0       0       0       0       0       0       0       0       0       0       0       
      +0       0       0       0       0
  4142 ;;      Temps:          0       0       0       0       0       0       0       0       0       0       0       0       
      +0       0       0       0       0
  4143 ;;      Totals:         3       0       0       0       0       0       0       0       0       0       0       0       
      +0       0       0       0       0
  4144 ;;Total ram usage:        3 bytes
  4145 ;; Hardware stack levels used: 1
  4146 ;; Hardware stack levels required when called: 5
  4147 ;; This function calls:
  4148 ;;		_gpio_pin_write_logic
  4149 ;; This function is called by:
  4150 ;;		_send_4_bit_command
  4151 ;;		_send_4_bit_char_data
  4152 ;; This function uses a non-reentrant model
  4153 ;;
  4154                           
  4155                           	psect	text23
  4156   0038C6                     __ptext23:
  4157                           	callstack 0
  4158   0038C6                     _send_4_bit_enable:
  4159                           	callstack 23
  4160   0038C6                     
  4161                           ;ECU_layer/LCD/ecu_lcd.c: 77:     if(((void*)0) == lcd)
  4162   0038C6  5017               	movf	send_4_bit_enable@lcd^0,w,c
  4163   0038C8  1018               	iorwf	(send_4_bit_enable@lcd+1)^0,w,c
  4164   0038CA  A4D8               	btfss	status,2,c
  4165   0038CC  EF6A  F01C         	goto	u3161
  4166   0038D0  EF6C  F01C         	goto	u3160
  4167   0038D4                     u3161:
  4168   0038D4  EF70  F01C         	goto	l3511
  4169   0038D8                     u3160:
  4170   0038D8                     
  4171                           ;ECU_layer/LCD/ecu_lcd.c: 78:         ret = (Std_ReturnType)0x00;
  4172   0038D8  0E00               	movlw	0
  4173   0038DA  6E19               	movwf	send_4_bit_enable@ret^0,c
  4174   0038DC  EF88  F01C         	goto	l3515
  4175   0038E0                     l3511:
  4176   0038E0  0E05               	movlw	5
  4177   0038E2  2417               	addwf	send_4_bit_enable@lcd^0,w,c
  4178   0038E4  6E0D               	movwf	gpio_pin_write_logic@Pin_Config^0,c
  4179   0038E6  0E00               	movlw	0
  4180   0038E8  2018               	addwfc	(send_4_bit_enable@lcd+1)^0,w,c
  4181   0038EA  6E0E               	movwf	(gpio_pin_write_logic@Pin_Config+1)^0,c
  4182   0038EC  0E01               	movlw	1
  4183   0038EE  6E0F               	movwf	gpio_pin_write_logic@logic^0,c
  4184   0038F0  EC50  F017         	call	_gpio_pin_write_logic	;wreg free
  4185   0038F4                     
  4186                           ;ECU_layer/LCD/ecu_lcd.c: 82:         _delay((unsigned long)((5)*(4000000UL/4000000.0)))
      +                          ;
  4187   0038F4  D000               	nop2		;2 cycle nop
  4188   0038F6  D000               	nop2		;2 cycle nop
  4189   0038F8  F000               	nop	
  4190                           
  4191                           ;ECU_layer/LCD/ecu_lcd.c: 83:         ret = gpio_pin_write_logic(&(lcd->en_lcd),LOW);
  4192   0038FA  0E05               	movlw	5
  4193   0038FC  2417               	addwf	send_4_bit_enable@lcd^0,w,c
  4194   0038FE  6E0D               	movwf	gpio_pin_write_logic@Pin_Config^0,c
  4195   003900  0E00               	movlw	0
  4196   003902  2018               	addwfc	(send_4_bit_enable@lcd+1)^0,w,c
  4197   003904  6E0E               	movwf	(gpio_pin_write_logic@Pin_Config+1)^0,c
  4198   003906  0E00               	movlw	0
  4199   003908  6E0F               	movwf	gpio_pin_write_logic@logic^0,c
  4200   00390A  EC50  F017         	call	_gpio_pin_write_logic	;wreg free
  4201   00390E  6E19               	movwf	send_4_bit_enable@ret^0,c
  4202   003910                     l3515:
  4203                           
  4204                           ;ECU_layer/LCD/ecu_lcd.c: 85:         return ret;
  4205   003910  5019               	movf	send_4_bit_enable@ret^0,w,c
  4206   003912  0012               	return		;funcret
  4207   003914                     __end_of_send_4_bit_enable:
  4208                           	callstack 0
  4209                           
  4210 ;; *************** function _gpio_pin_intialize *****************
  4211 ;; Defined at:
  4212 ;;		line 136 in file "MCAL_layer/GPIO/gpio.c"
  4213 ;; Parameters:    Size  Location     Type
  4214 ;;  Pin_Config      2   22[COMRAM] PTR const struct .
  4215 ;;		 -> motor.motor_confg(2), motor(2), lcd_4bit.lcd_pin(4), lcd_4bit(6), 
  4216 ;; Auto vars:     Size  Location     Type
  4217 ;;  ret             1   25[COMRAM] unsigned char 
  4218 ;; Return value:  Size  Location     Type
  4219 ;;                  1    wreg      unsigned char 
  4220 ;; Registers used:
  4221 ;;		wreg, fsr2l, fsr2h, status,2, status,0, prodl, prodh, cstack
  4222 ;; Tracked objects:
  4223 ;;		On entry : 0/0
  4224 ;;		On exit  : 0/0
  4225 ;;		Unchanged: 0/0
  4226 ;; Data sizes:     COMRAM   BANK0   BANK1   BANK2   BANK3   BANK4   BANK5   BANK6   BANK7   BANK8   BANK9  BANK10  BANK1
      +1  BANK12  BANK13  BANK14  BANK15
  4227 ;;      Params:         2       0       0       0       0       0       0       0       0       0       0       0       
      +0       0       0       0       0
  4228 ;;      Locals:         1       0       0       0       0       0       0       0       0       0       0       0       
      +0       0       0       0       0
  4229 ;;      Temps:          1       0       0       0       0       0       0       0       0       0       0       0       
      +0       0       0       0       0
  4230 ;;      Totals:         4       0       0       0       0       0       0       0       0       0       0       0       
      +0       0       0       0       0
  4231 ;;Total ram usage:        4 bytes
  4232 ;; Hardware stack levels used: 1
  4233 ;; Hardware stack levels required when called: 5
  4234 ;; This function calls:
  4235 ;;		_gpio_pin_direction_intialize
  4236 ;;		_gpio_pin_write_logic
  4237 ;; This function is called by:
  4238 ;;		_lcd_pins_4_initialize
  4239 ;;		_motor_initialize
  4240 ;;		_lcd_pins_8_initialize
  4241 ;; This function uses a non-reentrant model
  4242 ;;
  4243                           
  4244                           	psect	text24
  4245   0037BC                     __ptext24:
  4246                           	callstack 0
  4247   0037BC                     _gpio_pin_intialize:
  4248                           	callstack 23
  4249   0037BC                     
  4250                           ;MCAL_layer/GPIO/gpio.c: 138:     if(((void*)0) == Pin_Config || Pin_Config->pin > 8)
  4251   0037BC  5017               	movf	gpio_pin_intialize@Pin_Config^0,w,c
  4252   0037BE  1018               	iorwf	(gpio_pin_intialize@Pin_Config+1)^0,w,c
  4253   0037C0  B4D8               	btfsc	status,2,c
  4254   0037C2  EFE5  F01B         	goto	u4251
  4255   0037C6  EFE7  F01B         	goto	u4250
  4256   0037CA                     u4251:
  4257   0037CA  EFF8  F01B         	goto	l4149
  4258   0037CE                     u4250:
  4259   0037CE  C017  FFD9         	movff	gpio_pin_intialize@Pin_Config,fsr2l
  4260   0037D2  C018  FFDA         	movff	gpio_pin_intialize@Pin_Config+1,fsr2h
  4261   0037D6  30DF               	rrcf	223,w,c
  4262   0037D8  32E8               	rrcf	wreg,f,c
  4263   0037DA  32E8               	rrcf	wreg,f,c
  4264   0037DC  0B07               	andlw	7
  4265   0037DE  6E19               	movwf	??_gpio_pin_intialize^0,c
  4266   0037E0  0E08               	movlw	8
  4267   0037E2  6419               	cpfsgt	??_gpio_pin_intialize^0,c
  4268   0037E4  EFF6  F01B         	goto	u4261
  4269   0037E8  EFF8  F01B         	goto	u4260
  4270   0037EC                     u4261:
  4271   0037EC  EFFC  F01B         	goto	l4151
  4272   0037F0                     u4260:
  4273   0037F0                     l4149:
  4274                           
  4275                           ;MCAL_layer/GPIO/gpio.c: 139:         ret = (Std_ReturnType)0x00;
  4276   0037F0  0E00               	movlw	0
  4277   0037F2  6E1A               	movwf	gpio_pin_intialize@ret^0,c
  4278   0037F4  EF12  F01C         	goto	l4153
  4279   0037F8                     l4151:
  4280                           
  4281                           ;MCAL_layer/GPIO/gpio.c: 141:     {;MCAL_layer/GPIO/gpio.c: 142:        ret = gpio_pin_d
      +                          irection_intialize(Pin_Config);
  4282   0037F8  C017  F00D         	movff	gpio_pin_intialize@Pin_Config,gpio_pin_direction_intialize@Pin_Config
  4283   0037FC  C018  F00E         	movff	gpio_pin_intialize@Pin_Config+1,gpio_pin_direction_intialize@Pin_Config+1
  4284   003800  EC2E  F016         	call	_gpio_pin_direction_intialize	;wreg free
  4285   003804  6E1A               	movwf	gpio_pin_intialize@ret^0,c
  4286                           
  4287                           ;MCAL_layer/GPIO/gpio.c: 143:        ret = gpio_pin_write_logic(Pin_Config,Pin_Config->l
      +                          ogic);
  4288   003806  C017  F00D         	movff	gpio_pin_intialize@Pin_Config,gpio_pin_write_logic@Pin_Config
  4289   00380A  C018  F00E         	movff	gpio_pin_intialize@Pin_Config+1,gpio_pin_write_logic@Pin_Config+1
  4290   00380E  C017  FFD9         	movff	gpio_pin_intialize@Pin_Config,fsr2l
  4291   003812  C018  FFDA         	movff	gpio_pin_intialize@Pin_Config+1,fsr2h
  4292   003816  0E00               	movlw	0
  4293   003818  BEDF               	btfsc	indf2,7,c
  4294   00381A  0E01               	movlw	1
  4295   00381C  6E0F               	movwf	gpio_pin_write_logic@logic^0,c
  4296   00381E  EC50  F017         	call	_gpio_pin_write_logic	;wreg free
  4297   003822  6E1A               	movwf	gpio_pin_intialize@ret^0,c
  4298   003824                     l4153:
  4299                           
  4300                           ;MCAL_layer/GPIO/gpio.c: 146:         return ret;
  4301   003824  501A               	movf	gpio_pin_intialize@ret^0,w,c
  4302   003826  0012               	return		;funcret
  4303   003828                     __end_of_gpio_pin_intialize:
  4304                           	callstack 0
  4305                           
  4306 ;; *************** function _gpio_pin_write_logic *****************
  4307 ;; Defined at:
  4308 ;;		line 75 in file "MCAL_layer/GPIO/gpio.c"
  4309 ;; Parameters:    Size  Location     Type
  4310 ;;  Pin_Config      2   12[COMRAM] PTR const struct .
  4311 ;;		 -> motor.motor_confg(2), motor(2), lcd_4bit.lcd_pin(4), lcd_4bit(6), 
  4312 ;;  logic           1   14[COMRAM] enum E2968
  4313 ;; Auto vars:     Size  Location     Type
  4314 ;;  ret             1   21[COMRAM] unsigned char 
  4315 ;; Return value:  Size  Location     Type
  4316 ;;                  1    wreg      unsigned char 
  4317 ;; Registers used:
  4318 ;;		wreg, fsr2l, fsr2h, status,2, status,0, prodl, prodh
  4319 ;; Tracked objects:
  4320 ;;		On entry : 0/0
  4321 ;;		On exit  : 0/0
  4322 ;;		Unchanged: 0/0
  4323 ;; Data sizes:     COMRAM   BANK0   BANK1   BANK2   BANK3   BANK4   BANK5   BANK6   BANK7   BANK8   BANK9  BANK10  BANK1
      +1  BANK12  BANK13  BANK14  BANK15
  4324 ;;      Params:         3       0       0       0       0       0       0       0       0       0       0       0       
      +0       0       0       0       0
  4325 ;;      Locals:         1       0       0       0       0       0       0       0       0       0       0       0       
      +0       0       0       0       0
  4326 ;;      Temps:          6       0       0       0       0       0       0       0       0       0       0       0       
      +0       0       0       0       0
  4327 ;;      Totals:        10       0       0       0       0       0       0       0       0       0       0       0       
      +0       0       0       0       0
  4328 ;;Total ram usage:       10 bytes
  4329 ;; Hardware stack levels used: 1
  4330 ;; Hardware stack levels required when called: 4
  4331 ;; This function calls:
  4332 ;;		Nothing
  4333 ;; This function is called by:
  4334 ;;		_send_4_bit_command
  4335 ;;		_send_4_bit_char_data
  4336 ;;		_send_4_bit_enable
  4337 ;;		_send_4_bit_help
  4338 ;;		_motor_move_right
  4339 ;;		_gpio_pin_intialize
  4340 ;;		_send_8_bit_command
  4341 ;;		_send_8_bit_char_data
  4342 ;;		_send_8_bit_enable
  4343 ;;		_motor_move_left
  4344 ;;		_motor_turn_off
  4345 ;; This function uses a non-reentrant model
  4346 ;;
  4347                           
  4348                           	psect	text25
  4349   002EA0                     __ptext25:
  4350                           	callstack 0
  4351   002EA0                     _gpio_pin_write_logic:
  4352                           	callstack 23
  4353   002EA0                     
  4354                           ;MCAL_layer/GPIO/gpio.c: 76:      Std_ReturnType ret = (Std_ReturnType)0x01;
  4355   002EA0  0E01               	movlw	1
  4356   002EA2  6E16               	movwf	gpio_pin_write_logic@ret^0,c
  4357   002EA4                     
  4358                           ;MCAL_layer/GPIO/gpio.c: 77:     if(((void*)0) == Pin_Config || Pin_Config->pin > 8)
  4359   002EA4  500D               	movf	gpio_pin_write_logic@Pin_Config^0,w,c
  4360   002EA6  100E               	iorwf	(gpio_pin_write_logic@Pin_Config+1)^0,w,c
  4361   002EA8  B4D8               	btfsc	status,2,c
  4362   002EAA  EF59  F017         	goto	u2991
  4363   002EAE  EF5B  F017         	goto	u2990
  4364   002EB2                     u2991:
  4365   002EB2  EF6C  F017         	goto	l3429
  4366   002EB6                     u2990:
  4367   002EB6  C00D  FFD9         	movff	gpio_pin_write_logic@Pin_Config,fsr2l
  4368   002EBA  C00E  FFDA         	movff	gpio_pin_write_logic@Pin_Config+1,fsr2h
  4369   002EBE  30DF               	rrcf	223,w,c
  4370   002EC0  32E8               	rrcf	wreg,f,c
  4371   002EC2  32E8               	rrcf	wreg,f,c
  4372   002EC4  0B07               	andlw	7
  4373   002EC6  6E10               	movwf	??_gpio_pin_write_logic^0,c
  4374   002EC8  0E08               	movlw	8
  4375   002ECA  6410               	cpfsgt	??_gpio_pin_write_logic^0,c
  4376   002ECC  EF6A  F017         	goto	u3001
  4377   002ED0  EF6C  F017         	goto	u3000
  4378   002ED4                     u3001:
  4379   002ED4  EF70  F017         	goto	l3431
  4380   002ED8                     u3000:
  4381   002ED8                     l3429:
  4382                           
  4383                           ;MCAL_layer/GPIO/gpio.c: 78:         ret = (Std_ReturnType)0x00;
  4384   002ED8  0E00               	movlw	0
  4385   002EDA  6E16               	movwf	gpio_pin_write_logic@ret^0,c
  4386   002EDC  EFDD  F017         	goto	l467
  4387   002EE0                     l3431:
  4388                           
  4389                           ;MCAL_layer/GPIO/gpio.c: 80:     {;MCAL_layer/GPIO/gpio.c: 81:         if(logic == HIGH)
  4390   002EE0  040F               	decf	gpio_pin_write_logic@logic^0,w,c
  4391   002EE2  A4D8               	btfss	status,2,c
  4392   002EE4  EF76  F017         	goto	u3011
  4393   002EE8  EF78  F017         	goto	u3010
  4394   002EEC                     u3011:
  4395   002EEC  EFA6  F017         	goto	l3435
  4396   002EF0                     u3010:
  4397   002EF0                     
  4398                           ;MCAL_layer/GPIO/gpio.c: 82:             (*lat_reg[Pin_Config->port] |= ((uint8)1 << Pin
      +                          _Config->pin));
  4399   002EF0  C00D  FFD9         	movff	gpio_pin_write_logic@Pin_Config,fsr2l
  4400   002EF4  C00E  FFDA         	movff	gpio_pin_write_logic@Pin_Config+1,fsr2h
  4401   002EF8  30DF               	rrcf	223,w,c
  4402   002EFA  32E8               	rrcf	wreg,f,c
  4403   002EFC  32E8               	rrcf	wreg,f,c
  4404   002EFE  0B07               	andlw	7
  4405   002F00  6E10               	movwf	??_gpio_pin_write_logic^0,c
  4406   002F02  0E01               	movlw	1
  4407   002F04  6E11               	movwf	(??_gpio_pin_write_logic+1)^0,c
  4408   002F06  2A10               	incf	??_gpio_pin_write_logic^0,f,c
  4409   002F08  EF88  F017         	goto	u3024
  4410   002F0C                     u3025:
  4411   002F0C  90D8               	bcf	status,0,c
  4412   002F0E  3611               	rlcf	(??_gpio_pin_write_logic+1)^0,f,c
  4413   002F10                     u3024:
  4414   002F10  2E10               	decfsz	??_gpio_pin_write_logic^0,f,c
  4415   002F12  EF86  F017         	goto	u3025
  4416   002F16  C00D  FFD9         	movff	gpio_pin_write_logic@Pin_Config,fsr2l
  4417   002F1A  C00E  FFDA         	movff	gpio_pin_write_logic@Pin_Config+1,fsr2h
  4418   002F1E  50DF               	movf	223,w,c
  4419   002F20  0B07               	andlw	7
  4420   002F22  6E12               	movwf	(??_gpio_pin_write_logic+2)^0,c
  4421   002F24  5012               	movf	(??_gpio_pin_write_logic+2)^0,w,c
  4422   002F26  0D02               	mullw	2
  4423   002F28  0E8A               	movlw	low _lat_reg
  4424   002F2A  24F3               	addwf	243,w,c
  4425   002F2C  6ED9               	movwf	fsr2l,c
  4426   002F2E  0E00               	movlw	high _lat_reg
  4427   002F30  20F4               	addwfc	prodh,w,c
  4428   002F32  6EDA               	movwf	fsr2h,c
  4429   002F34  CFDE F013          	movff	postinc2,??_gpio_pin_write_logic+3
  4430   002F38  CFDD F014          	movff	postdec2,??_gpio_pin_write_logic+4
  4431   002F3C  C013  FFD9         	movff	??_gpio_pin_write_logic+3,fsr2l
  4432   002F40  C014  FFDA         	movff	??_gpio_pin_write_logic+4,fsr2h
  4433   002F44  5011               	movf	(??_gpio_pin_write_logic+1)^0,w,c
  4434   002F46  12DF               	iorwf	indf2,f,c
  4435   002F48  EFDD  F017         	goto	l467
  4436   002F4C                     l3435:
  4437   002F4C  C00D  FFD9         	movff	gpio_pin_write_logic@Pin_Config,fsr2l
  4438   002F50  C00E  FFDA         	movff	gpio_pin_write_logic@Pin_Config+1,fsr2h
  4439   002F54  30DF               	rrcf	223,w,c
  4440   002F56  32E8               	rrcf	wreg,f,c
  4441   002F58  32E8               	rrcf	wreg,f,c
  4442   002F5A  0B07               	andlw	7
  4443   002F5C  6E10               	movwf	??_gpio_pin_write_logic^0,c
  4444   002F5E  0E01               	movlw	1
  4445   002F60  6E11               	movwf	(??_gpio_pin_write_logic+1)^0,c
  4446   002F62  2A10               	incf	??_gpio_pin_write_logic^0,f,c
  4447   002F64  EFB6  F017         	goto	u3034
  4448   002F68                     u3035:
  4449   002F68  90D8               	bcf	status,0,c
  4450   002F6A  3611               	rlcf	(??_gpio_pin_write_logic+1)^0,f,c
  4451   002F6C                     u3034:
  4452   002F6C  2E10               	decfsz	??_gpio_pin_write_logic^0,f,c
  4453   002F6E  EFB4  F017         	goto	u3035
  4454   002F72  5011               	movf	(??_gpio_pin_write_logic+1)^0,w,c
  4455   002F74  0AFF               	xorlw	255
  4456   002F76  6E12               	movwf	(??_gpio_pin_write_logic+2)^0,c
  4457   002F78  C00D  FFD9         	movff	gpio_pin_write_logic@Pin_Config,fsr2l
  4458   002F7C  C00E  FFDA         	movff	gpio_pin_write_logic@Pin_Config+1,fsr2h
  4459   002F80  50DF               	movf	223,w,c
  4460   002F82  0B07               	andlw	7
  4461   002F84  6E13               	movwf	(??_gpio_pin_write_logic+3)^0,c
  4462   002F86  5013               	movf	(??_gpio_pin_write_logic+3)^0,w,c
  4463   002F88  0D02               	mullw	2
  4464   002F8A  0E8A               	movlw	low _lat_reg
  4465   002F8C  24F3               	addwf	243,w,c
  4466   002F8E  6ED9               	movwf	fsr2l,c
  4467   002F90  0E00               	movlw	high _lat_reg
  4468   002F92  20F4               	addwfc	prodh,w,c
  4469   002F94  6EDA               	movwf	fsr2h,c
  4470   002F96  CFDE F014          	movff	postinc2,??_gpio_pin_write_logic+4
  4471   002F9A  CFDD F015          	movff	postdec2,??_gpio_pin_write_logic+5
  4472   002F9E  C014  FFD9         	movff	??_gpio_pin_write_logic+4,fsr2l
  4473   002FA2  C015  FFDA         	movff	??_gpio_pin_write_logic+5,fsr2h
  4474   002FA6  5012               	movf	(??_gpio_pin_write_logic+2)^0,w,c
  4475   002FA8  16DF               	andwf	indf2,f,c
  4476   002FAA  50DF               	movf	indf2,w,c
  4477   002FAC  B4D8               	btfsc	status,2,c
  4478   002FAE  EFDB  F017         	goto	u3041
  4479   002FB2  EFDD  F017         	goto	u3040
  4480   002FB6                     u3041:
  4481   002FB6  EF6C  F017         	goto	l3429
  4482   002FBA                     u3040:
  4483   002FBA                     l467:
  4484                           
  4485                           ;MCAL_layer/GPIO/gpio.c: 87:         return ret;
  4486   002FBA  5016               	movf	gpio_pin_write_logic@ret^0,w,c
  4487   002FBC  0012               	return		;funcret
  4488   002FBE                     __end_of_gpio_pin_write_logic:
  4489                           	callstack 0
  4490                           
  4491 ;; *************** function _adc_init *****************
  4492 ;; Defined at:
  4493 ;;		line 14 in file "MCAL_layer/ADC/adc.c"
  4494 ;; Parameters:    Size  Location     Type
  4495 ;;  adc_confg       2   21[COMRAM] PTR struct .
  4496 ;;		 -> adc_0(8), 
  4497 ;; Auto vars:     Size  Location     Type
  4498 ;;  ret             1    0        unsigned char 
  4499 ;; Return value:  Size  Location     Type
  4500 ;;                  1    wreg      unsigned char 
  4501 ;; Registers used:
  4502 ;;		wreg, fsr2l, fsr2h, status,2, status,0, prodl, prodh, cstack
  4503 ;; Tracked objects:
  4504 ;;		On entry : 0/0
  4505 ;;		On exit  : 0/0
  4506 ;;		Unchanged: 0/0
  4507 ;; Data sizes:     COMRAM   BANK0   BANK1   BANK2   BANK3   BANK4   BANK5   BANK6   BANK7   BANK8   BANK9  BANK10  BANK1
      +1  BANK12  BANK13  BANK14  BANK15
  4508 ;;      Params:         2       0       0       0       0       0       0       0       0       0       0       0       
      +0       0       0       0       0
  4509 ;;      Locals:         0       0       0       0       0       0       0       0       0       0       0       0       
      +0       0       0       0       0
  4510 ;;      Temps:          1       0       0       0       0       0       0       0       0       0       0       0       
      +0       0       0       0       0
  4511 ;;      Totals:         3       0       0       0       0       0       0       0       0       0       0       0       
      +0       0       0       0       0
  4512 ;;Total ram usage:        3 bytes
  4513 ;; Hardware stack levels used: 1
  4514 ;; Hardware stack levels required when called: 5
  4515 ;; This function calls:
  4516 ;;		_analog_pin_functionality
  4517 ;;		_gpio_pin_direction_intialize
  4518 ;;		_set_adc_interrupt
  4519 ;; This function is called by:
  4520 ;;		_application_initialize
  4521 ;; This function uses a non-reentrant model
  4522 ;;
  4523                           
  4524                           	psect	text26
  4525   002B34                     __ptext26:
  4526                           	callstack 0
  4527   002B34                     _adc_init:
  4528                           	callstack 24
  4529   002B34                     
  4530                           ;MCAL_layer/ADC/adc.c: 16:     if(((void*)0) == adc_confg)
  4531   002B34  5016               	movf	adc_init@adc_confg^0,w,c
  4532   002B36  1017               	iorwf	(adc_init@adc_confg+1)^0,w,c
  4533   002B38  A4D8               	btfss	status,2,c
  4534   002B3A  EFA1  F015         	goto	u4631
  4535   002B3E  EFA3  F015         	goto	u4630
  4536   002B42                     u4631:
  4537   002B42  EFA5  F015         	goto	l240
  4538   002B46                     u4630:
  4539   002B46  EF2D  F016         	goto	l256
  4540   002B4A                     l240:
  4541                           
  4542                           ;MCAL_layer/ADC/adc.c: 19:     {;MCAL_layer/ADC/adc.c: 20:       (ADCON0bits.ADON = 0);
  4543   002B4A  90C2               	bcf	194,0,c	;volatile
  4544   002B4C                     
  4545                           ;MCAL_layer/ADC/adc.c: 22:       gpio_pin_direction_intialize(&(adc_confg->adc_pin_confg
      +                          ));
  4546   002B4C  0E02               	movlw	2
  4547   002B4E  2416               	addwf	adc_init@adc_confg^0,w,c
  4548   002B50  6E0D               	movwf	gpio_pin_direction_intialize@Pin_Config^0,c
  4549   002B52  0E00               	movlw	0
  4550   002B54  2017               	addwfc	(adc_init@adc_confg+1)^0,w,c
  4551   002B56  6E0E               	movwf	(gpio_pin_direction_intialize@Pin_Config+1)^0,c
  4552   002B58  EC2E  F016         	call	_gpio_pin_direction_intialize	;wreg free
  4553   002B5C                     
  4554                           ;MCAL_layer/ADC/adc.c: 24:      analog_pin_functionality(0x0E);
  4555   002B5C  0E0E               	movlw	14
  4556   002B5E  EC6D  F01E         	call	_analog_pin_functionality
  4557   002B62                     
  4558                           ;MCAL_layer/ADC/adc.c: 26:         ADCON2bits.ACQT = adc_confg->adc_acquisition_time;
  4559   002B62  EE20 F004          	lfsr	2,4
  4560   002B66  5016               	movf	adc_init@adc_confg^0,w,c
  4561   002B68  26D9               	addwf	fsr2l,f,c
  4562   002B6A  5017               	movf	(adc_init@adc_confg+1)^0,w,c
  4563   002B6C  22DA               	addwfc	fsr2h,f,c
  4564   002B6E  50DF               	movf	indf2,w,c
  4565   002B70  6E18               	movwf	??_adc_init^0,c
  4566   002B72  4618               	rlncf	??_adc_init^0,f,c
  4567   002B74  4618               	rlncf	??_adc_init^0,f,c
  4568   002B76  4618               	rlncf	??_adc_init^0,f,c
  4569   002B78  50C0               	movf	192,w,c	;volatile
  4570   002B7A  1818               	xorwf	??_adc_init^0,w,c
  4571   002B7C  0BC7               	andlw	-57
  4572   002B7E  1818               	xorwf	??_adc_init^0,w,c
  4573   002B80  6EC0               	movwf	192,c	;volatile
  4574   002B82                     
  4575                           ;MCAL_layer/ADC/adc.c: 27:         ADCON2bits.ADCS = adc_confg->adc_conversion_clock;
  4576   002B82  EE20 F005          	lfsr	2,5
  4577   002B86  5016               	movf	adc_init@adc_confg^0,w,c
  4578   002B88  26D9               	addwf	fsr2l,f,c
  4579   002B8A  5017               	movf	(adc_init@adc_confg+1)^0,w,c
  4580   002B8C  22DA               	addwfc	fsr2h,f,c
  4581   002B8E  50DF               	movf	indf2,w,c
  4582   002B90  6E18               	movwf	??_adc_init^0,c
  4583   002B92  50C0               	movf	192,w,c	;volatile
  4584   002B94  1818               	xorwf	??_adc_init^0,w,c
  4585   002B96  0BF8               	andlw	-8
  4586   002B98  1818               	xorwf	??_adc_init^0,w,c
  4587   002B9A  6EC0               	movwf	192,c	;volatile
  4588   002B9C                     
  4589                           ;MCAL_layer/ADC/adc.c: 29:         ADCON0bits.CHS = adc_confg->adc_channel;
  4590   002B9C  EE20 F003          	lfsr	2,3
  4591   002BA0  5016               	movf	adc_init@adc_confg^0,w,c
  4592   002BA2  26D9               	addwf	fsr2l,f,c
  4593   002BA4  5017               	movf	(adc_init@adc_confg+1)^0,w,c
  4594   002BA6  22DA               	addwfc	fsr2h,f,c
  4595   002BA8  50DF               	movf	indf2,w,c
  4596   002BAA  6E18               	movwf	??_adc_init^0,c
  4597   002BAC  4618               	rlncf	??_adc_init^0,f,c
  4598   002BAE  4618               	rlncf	??_adc_init^0,f,c
  4599   002BB0  50C2               	movf	194,w,c	;volatile
  4600   002BB2  1818               	xorwf	??_adc_init^0,w,c
  4601   002BB4  0BC3               	andlw	-61
  4602   002BB6  1818               	xorwf	??_adc_init^0,w,c
  4603   002BB8  6EC2               	movwf	194,c	;volatile
  4604   002BBA                     
  4605                           ;MCAL_layer/ADC/adc.c: 31:       if(adc_confg->voltage_reference == 0)
  4606   002BBA  EE20 F007          	lfsr	2,7
  4607   002BBE  5016               	movf	adc_init@adc_confg^0,w,c
  4608   002BC0  26D9               	addwf	fsr2l,f,c
  4609   002BC2  5017               	movf	(adc_init@adc_confg+1)^0,w,c
  4610   002BC4  22DA               	addwfc	fsr2h,f,c
  4611   002BC6  B2DF               	btfsc	indf2,1,c
  4612   002BC8  EFE8  F015         	goto	u4641
  4613   002BCC  EFEA  F015         	goto	u4640
  4614   002BD0                     u4641:
  4615   002BD0  EFEE  F015         	goto	l4485
  4616   002BD4                     u4640:
  4617   002BD4  9AC1               	bcf	193,5,c	;volatile
  4618   002BD6  98C1               	bcf	193,4,c	;volatile
  4619   002BD8  EF01  F016         	goto	l4487
  4620   002BDC                     l4485:
  4621   002BDC  EE20 F007          	lfsr	2,7
  4622   002BE0  5016               	movf	adc_init@adc_confg^0,w,c
  4623   002BE2  26D9               	addwf	fsr2l,f,c
  4624   002BE4  5017               	movf	(adc_init@adc_confg+1)^0,w,c
  4625   002BE6  22DA               	addwfc	fsr2h,f,c
  4626   002BE8  A2DF               	btfss	indf2,1,c
  4627   002BEA  EFF9  F015         	goto	u4651
  4628   002BEE  EFFB  F015         	goto	u4650
  4629   002BF2                     u4651:
  4630   002BF2  EFFF  F015         	goto	l250
  4631   002BF6                     u4650:
  4632   002BF6  8AC1               	bsf	193,5,c	;volatile
  4633   002BF8  88C1               	bsf	193,4,c	;volatile
  4634   002BFA  EF01  F016         	goto	l4487
  4635   002BFE                     l250:
  4636   002BFE  8AC1               	bsf	193,5,c	;volatile
  4637   002C00  88C1               	bsf	193,4,c	;volatile
  4638   002C02                     l4487:
  4639                           
  4640                           ;MCAL_layer/ADC/adc.c: 39:       if(adc_confg->result_format == 1)
  4641   002C02  EE20 F007          	lfsr	2,7
  4642   002C06  5016               	movf	adc_init@adc_confg^0,w,c
  4643   002C08  26D9               	addwf	fsr2l,f,c
  4644   002C0A  5017               	movf	(adc_init@adc_confg+1)^0,w,c
  4645   002C0C  22DA               	addwfc	fsr2h,f,c
  4646   002C0E  A0DF               	btfss	indf2,0,c
  4647   002C10  EF0C  F016         	goto	u4661
  4648   002C14  EF0E  F016         	goto	u4660
  4649   002C18                     u4661:
  4650   002C18  EF11  F016         	goto	l4491
  4651   002C1C                     u4660:
  4652   002C1C                     
  4653                           ;MCAL_layer/ADC/adc.c: 40:          (ADCON2bits.ADFM = 1);
  4654   002C1C  8EC0               	bsf	192,7,c	;volatile
  4655   002C1E  EF22  F016         	goto	l253
  4656   002C22                     l4491:
  4657   002C22  EE20 F007          	lfsr	2,7
  4658   002C26  5016               	movf	adc_init@adc_confg^0,w,c
  4659   002C28  26D9               	addwf	fsr2l,f,c
  4660   002C2A  5017               	movf	(adc_init@adc_confg+1)^0,w,c
  4661   002C2C  22DA               	addwfc	fsr2h,f,c
  4662   002C2E  B0DF               	btfsc	indf2,0,c
  4663   002C30  EF1C  F016         	goto	u4671
  4664   002C34  EF1E  F016         	goto	u4670
  4665   002C38                     u4671:
  4666   002C38  EF21  F016         	goto	l254
  4667   002C3C                     u4670:
  4668   002C3C                     
  4669                           ;MCAL_layer/ADC/adc.c: 42:           (ADCON2bits.ADFM = 0);
  4670   002C3C  9EC0               	bcf	192,7,c	;volatile
  4671   002C3E  EF22  F016         	goto	l253
  4672   002C42                     l254:
  4673                           
  4674                           ;MCAL_layer/ADC/adc.c: 44:           (ADCON2bits.ADFM = 1);
  4675   002C42  8EC0               	bsf	192,7,c	;volatile
  4676   002C44                     l253:
  4677                           
  4678                           ;MCAL_layer/ADC/adc.c: 47:       (ADCON0bits.ADON = 1);
  4679   002C44  80C2               	bsf	194,0,c	;volatile
  4680                           
  4681                           ;MCAL_layer/ADC/adc.c: 51:      (PIR1bits.ADIF = 0);
  4682   002C46  9C9E               	bcf	158,6,c	;volatile
  4683                           
  4684                           ;MCAL_layer/ADC/adc.c: 66:        (INTCONbits.PEIE = 1);
  4685   002C48  8CF2               	bsf	242,6,c	;volatile
  4686                           
  4687                           ;MCAL_layer/ADC/adc.c: 67:        (INTCONbits.GIE = 1);
  4688   002C4A  8EF2               	bsf	242,7,c	;volatile
  4689   002C4C                     
  4690                           ;MCAL_layer/ADC/adc.c: 69:     set_adc_interrupt(adc_confg);
  4691   002C4C  C016  F00D         	movff	adc_init@adc_confg,set_adc_interrupt@adc_confg
  4692   002C50  C017  F00E         	movff	adc_init@adc_confg+1,set_adc_interrupt@adc_confg+1
  4693   002C54  EC1B  F01E         	call	_set_adc_interrupt	;wreg free
  4694   002C58                     
  4695                           ;MCAL_layer/ADC/adc.c: 70:     (PIE1bits.ADIE = 1);
  4696   002C58  8C9D               	bsf	157,6,c	;volatile
  4697   002C5A                     l256:
  4698   002C5A  0012               	return		;funcret
  4699   002C5C                     __end_of_adc_init:
  4700                           	callstack 0
  4701                           
  4702 ;; *************** function _set_adc_interrupt *****************
  4703 ;; Defined at:
  4704 ;;		line 165 in file "MCAL_layer/ADC/adc.c"
  4705 ;; Parameters:    Size  Location     Type
  4706 ;;  adc_confg       2   12[COMRAM] PTR struct .
  4707 ;;		 -> adc_0(8), 
  4708 ;; Auto vars:     Size  Location     Type
  4709 ;;  ret             1    0        unsigned char 
  4710 ;; Return value:  Size  Location     Type
  4711 ;;                  1    wreg      unsigned char 
  4712 ;; Registers used:
  4713 ;;		wreg, fsr2l, fsr2h, status,2, status,0
  4714 ;; Tracked objects:
  4715 ;;		On entry : 0/0
  4716 ;;		On exit  : 0/0
  4717 ;;		Unchanged: 0/0
  4718 ;; Data sizes:     COMRAM   BANK0   BANK1   BANK2   BANK3   BANK4   BANK5   BANK6   BANK7   BANK8   BANK9  BANK10  BANK1
      +1  BANK12  BANK13  BANK14  BANK15
  4719 ;;      Params:         2       0       0       0       0       0       0       0       0       0       0       0       
      +0       0       0       0       0
  4720 ;;      Locals:         0       0       0       0       0       0       0       0       0       0       0       0       
      +0       0       0       0       0
  4721 ;;      Temps:          0       0       0       0       0       0       0       0       0       0       0       0       
      +0       0       0       0       0
  4722 ;;      Totals:         2       0       0       0       0       0       0       0       0       0       0       0       
      +0       0       0       0       0
  4723 ;;Total ram usage:        2 bytes
  4724 ;; Hardware stack levels used: 1
  4725 ;; Hardware stack levels required when called: 4
  4726 ;; This function calls:
  4727 ;;		Nothing
  4728 ;; This function is called by:
  4729 ;;		_adc_init
  4730 ;; This function uses a non-reentrant model
  4731 ;;
  4732                           
  4733                           	psect	text27
  4734   003C36                     __ptext27:
  4735                           	callstack 0
  4736   003C36                     _set_adc_interrupt:
  4737                           	callstack 24
  4738   003C36                     
  4739                           ;MCAL_layer/ADC/adc.c: 167:     if(((void*)0) == adc_confg)
  4740   003C36  500D               	movf	set_adc_interrupt@adc_confg^0,w,c
  4741   003C38  100E               	iorwf	(set_adc_interrupt@adc_confg+1)^0,w,c
  4742   003C3A  A4D8               	btfss	status,2,c
  4743   003C3C  EF22  F01E         	goto	u4311
  4744   003C40  EF24  F01E         	goto	u4310
  4745   003C44                     u4311:
  4746   003C44  EF26  F01E         	goto	l4203
  4747   003C48                     u4310:
  4748   003C48  EF2E  F01E         	goto	l305
  4749   003C4C                     l4203:
  4750                           
  4751                           ;MCAL_layer/ADC/adc.c: 170:     {;MCAL_layer/ADC/adc.c: 171:       hundler_ADC = adc_con
      +                          fg->internalfun_interrupt;
  4752   003C4C  C00D  FFD9         	movff	set_adc_interrupt@adc_confg,fsr2l
  4753   003C50  C00E  FFDA         	movff	set_adc_interrupt@adc_confg+1,fsr2h
  4754   003C54  CFDE F06E          	movff	postinc2,_hundler_ADC
  4755   003C58  CFDD F06F          	movff	postdec2,_hundler_ADC+1
  4756   003C5C                     l305:
  4757   003C5C  0012               	return		;funcret
  4758   003C5E                     __end_of_set_adc_interrupt:
  4759                           	callstack 0
  4760                           
  4761 ;; *************** function _analog_pin_functionality *****************
  4762 ;; Defined at:
  4763 ;;		line 160 in file "MCAL_layer/ADC/adc.c"
  4764 ;; Parameters:    Size  Location     Type
  4765 ;;  pin_function    1    wreg     unsigned char 
  4766 ;; Auto vars:     Size  Location     Type
  4767 ;;  pin_function    1   12[COMRAM] unsigned char 
  4768 ;; Return value:  Size  Location     Type
  4769 ;;                  1    wreg      unsigned char 
  4770 ;; Registers used:
  4771 ;;		wreg, status,2, status,0
  4772 ;; Tracked objects:
  4773 ;;		On entry : 0/0
  4774 ;;		On exit  : 0/0
  4775 ;;		Unchanged: 0/0
  4776 ;; Data sizes:     COMRAM   BANK0   BANK1   BANK2   BANK3   BANK4   BANK5   BANK6   BANK7   BANK8   BANK9  BANK10  BANK1
      +1  BANK12  BANK13  BANK14  BANK15
  4777 ;;      Params:         0       0       0       0       0       0       0       0       0       0       0       0       
      +0       0       0       0       0
  4778 ;;      Locals:         1       0       0       0       0       0       0       0       0       0       0       0       
      +0       0       0       0       0
  4779 ;;      Temps:          0       0       0       0       0       0       0       0       0       0       0       0       
      +0       0       0       0       0
  4780 ;;      Totals:         1       0       0       0       0       0       0       0       0       0       0       0       
      +0       0       0       0       0
  4781 ;;Total ram usage:        1 bytes
  4782 ;; Hardware stack levels used: 1
  4783 ;; Hardware stack levels required when called: 4
  4784 ;; This function calls:
  4785 ;;		Nothing
  4786 ;; This function is called by:
  4787 ;;		_adc_init
  4788 ;; This function uses a non-reentrant model
  4789 ;;
  4790                           
  4791                           	psect	text28
  4792   003CDA                     __ptext28:
  4793                           	callstack 0
  4794   003CDA                     _analog_pin_functionality:
  4795                           	callstack 24
  4796                           
  4797                           ;incstack = 0
  4798                           ;analog_pin_functionality@pin_functionality stored from wreg
  4799   003CDA  6E0D               	movwf	analog_pin_functionality@pin_functionality^0,c
  4800   003CDC                     
  4801                           ;MCAL_layer/ADC/adc.c: 161:     ADCON1bits.PCFG = pin_functionality;
  4802   003CDC  50C1               	movf	193,w,c	;volatile
  4803   003CDE  180D               	xorwf	analog_pin_functionality@pin_functionality^0,w,c
  4804   003CE0  0BF0               	andlw	-16
  4805   003CE2  180D               	xorwf	analog_pin_functionality@pin_functionality^0,w,c
  4806   003CE4  6EC1               	movwf	193,c	;volatile
  4807   003CE6  0012               	return		;funcret
  4808   003CE8                     __end_of_analog_pin_functionality:
  4809                           	callstack 0
  4810                           
  4811 ;; *************** function _Timer2_init *****************
  4812 ;; Defined at:
  4813 ;;		line 23 in file "MCAL_layer/TIMER2/timer2.c"
  4814 ;; Parameters:    Size  Location     Type
  4815 ;;  timer2          2   15[COMRAM] PTR struct .
  4816 ;;		 -> timer2_obj(6), 
  4817 ;; Auto vars:     Size  Location     Type
  4818 ;;  ret             1    0        unsigned char 
  4819 ;; Return value:  Size  Location     Type
  4820 ;;                  1    wreg      unsigned char 
  4821 ;; Registers used:
  4822 ;;		wreg, fsr2l, fsr2h, status,2, status,0, cstack
  4823 ;; Tracked objects:
  4824 ;;		On entry : 0/0
  4825 ;;		On exit  : 0/0
  4826 ;;		Unchanged: 0/0
  4827 ;; Data sizes:     COMRAM   BANK0   BANK1   BANK2   BANK3   BANK4   BANK5   BANK6   BANK7   BANK8   BANK9  BANK10  BANK1
      +1  BANK12  BANK13  BANK14  BANK15
  4828 ;;      Params:         2       0       0       0       0       0       0       0       0       0       0       0       
      +0       0       0       0       0
  4829 ;;      Locals:         0       0       0       0       0       0       0       0       0       0       0       0       
      +0       0       0       0       0
  4830 ;;      Temps:          0       0       0       0       0       0       0       0       0       0       0       0       
      +0       0       0       0       0
  4831 ;;      Totals:         2       0       0       0       0       0       0       0       0       0       0       0       
      +0       0       0       0       0
  4832 ;;Total ram usage:        2 bytes
  4833 ;; Hardware stack levels used: 1
  4834 ;; Hardware stack levels required when called: 5
  4835 ;; This function calls:
  4836 ;;		_prescaler_timer_status
  4837 ;;		_set_TIMER2_interrupt
  4838 ;; This function is called by:
  4839 ;;		_application_initialize
  4840 ;; This function uses a non-reentrant model
  4841 ;;
  4842                           
  4843                           	psect	text29
  4844   003960                     __ptext29:
  4845                           	callstack 0
  4846   003960                     _Timer2_init:
  4847                           	callstack 24
  4848   003960                     
  4849                           ;MCAL_layer/TIMER2/timer2.c: 25:     if(((void*)0) == timer2)
  4850   003960  5010               	movf	Timer2_init@timer2^0,w,c
  4851   003962  1011               	iorwf	(Timer2_init@timer2+1)^0,w,c
  4852   003964  A4D8               	btfss	status,2,c
  4853   003966  EFB7  F01C         	goto	u4771
  4854   00396A  EFB9  F01C         	goto	u4770
  4855   00396E                     u4771:
  4856   00396E  EFBB  F01C         	goto	l554
  4857   003972                     u4770:
  4858   003972  EFD5  F01C         	goto	l556
  4859   003976                     l554:
  4860                           
  4861                           ;MCAL_layer/TIMER2/timer2.c: 28:     {;MCAL_layer/TIMER2/timer2.c: 29:         (T2CONbit
      +                          s.TMR2ON = 0);
  4862   003976  94CA               	bcf	202,2,c	;volatile
  4863   003978                     
  4864                           ;MCAL_layer/TIMER2/timer2.c: 31:         TMR2 = (uint8)timer2->value_start_cnt;
  4865   003978  EE20 F004          	lfsr	2,4
  4866   00397C  5010               	movf	Timer2_init@timer2^0,w,c
  4867   00397E  26D9               	addwf	fsr2l,f,c
  4868   003980  5011               	movf	(Timer2_init@timer2+1)^0,w,c
  4869   003982  22DA               	addwfc	fsr2h,f,c
  4870   003984  50DF               	movf	indf2,w,c
  4871   003986  6ECC               	movwf	204,c	;volatile
  4872   003988                     
  4873                           ;MCAL_layer/TIMER2/timer2.c: 33:         prescaler_timer_status(timer2);
  4874   003988  C010  F00D         	movff	Timer2_init@timer2,prescaler_timer_status@timer2
  4875   00398C  C011  F00E         	movff	Timer2_init@timer2+1,prescaler_timer_status@timer2+1
  4876   003990  ECEB  F01D         	call	_prescaler_timer_status	;wreg free
  4877   003994                     
  4878                           ;MCAL_layer/TIMER2/timer2.c: 35:         (T2CONbits.TMR2ON = 1);
  4879   003994  84CA               	bsf	202,2,c	;volatile
  4880   003996                     
  4881                           ;MCAL_layer/TIMER2/timer2.c: 37:      (INTCONbits.TMR0IF = 0);
  4882   003996  94F2               	bcf	242,2,c	;volatile
  4883   003998                     
  4884                           ;MCAL_layer/TIMER2/timer2.c: 52:        (INTCONbits.PEIE = 1);
  4885   003998  8CF2               	bsf	242,6,c	;volatile
  4886   00399A                     
  4887                           ;MCAL_layer/TIMER2/timer2.c: 53:        (INTCONbits.GIE = 1);
  4888   00399A  8EF2               	bsf	242,7,c	;volatile
  4889   00399C                     
  4890                           ;MCAL_layer/TIMER2/timer2.c: 55:     set_TIMER2_interrupt(timer2);
  4891   00399C  C010  F00D         	movff	Timer2_init@timer2,set_TIMER2_interrupt@timer2
  4892   0039A0  C011  F00E         	movff	Timer2_init@timer2+1,set_TIMER2_interrupt@timer2+1
  4893   0039A4  EC2F  F01E         	call	_set_TIMER2_interrupt	;wreg free
  4894   0039A8                     
  4895                           ;MCAL_layer/TIMER2/timer2.c: 56:     (PIE1bits.TMR2IE = 0);
  4896   0039A8  929D               	bcf	157,1,c	;volatile
  4897   0039AA                     l556:
  4898   0039AA  0012               	return		;funcret
  4899   0039AC                     __end_of_Timer2_init:
  4900                           	callstack 0
  4901                           
  4902 ;; *************** function _set_TIMER2_interrupt *****************
  4903 ;; Defined at:
  4904 ;;		line 114 in file "MCAL_layer/TIMER2/timer2.c"
  4905 ;; Parameters:    Size  Location     Type
  4906 ;;  timer2          2   12[COMRAM] PTR struct .
  4907 ;;		 -> timer2_obj(6), 
  4908 ;; Auto vars:     Size  Location     Type
  4909 ;;  ret             1    0        unsigned char 
  4910 ;; Return value:  Size  Location     Type
  4911 ;;                  1    wreg      unsigned char 
  4912 ;; Registers used:
  4913 ;;		wreg, fsr2l, fsr2h, status,2, status,0
  4914 ;; Tracked objects:
  4915 ;;		On entry : 0/0
  4916 ;;		On exit  : 0/0
  4917 ;;		Unchanged: 0/0
  4918 ;; Data sizes:     COMRAM   BANK0   BANK1   BANK2   BANK3   BANK4   BANK5   BANK6   BANK7   BANK8   BANK9  BANK10  BANK1
      +1  BANK12  BANK13  BANK14  BANK15
  4919 ;;      Params:         2       0       0       0       0       0       0       0       0       0       0       0       
      +0       0       0       0       0
  4920 ;;      Locals:         0       0       0       0       0       0       0       0       0       0       0       0       
      +0       0       0       0       0
  4921 ;;      Temps:          0       0       0       0       0       0       0       0       0       0       0       0       
      +0       0       0       0       0
  4922 ;;      Totals:         2       0       0       0       0       0       0       0       0       0       0       0       
      +0       0       0       0       0
  4923 ;;Total ram usage:        2 bytes
  4924 ;; Hardware stack levels used: 1
  4925 ;; Hardware stack levels required when called: 4
  4926 ;; This function calls:
  4927 ;;		Nothing
  4928 ;; This function is called by:
  4929 ;;		_Timer2_init
  4930 ;; This function uses a non-reentrant model
  4931 ;;
  4932                           
  4933                           	psect	text30
  4934   003C5E                     __ptext30:
  4935                           	callstack 0
  4936   003C5E                     _set_TIMER2_interrupt:
  4937                           	callstack 24
  4938   003C5E                     
  4939                           ;MCAL_layer/TIMER2/timer2.c: 116:     if(((void*)0) == timer2)
  4940   003C5E  500D               	movf	set_TIMER2_interrupt@timer2^0,w,c
  4941   003C60  100E               	iorwf	(set_TIMER2_interrupt@timer2+1)^0,w,c
  4942   003C62  A4D8               	btfss	status,2,c
  4943   003C64  EF36  F01E         	goto	u4391
  4944   003C68  EF38  F01E         	goto	u4390
  4945   003C6C                     u4391:
  4946   003C6C  EF3A  F01E         	goto	l4263
  4947   003C70                     u4390:
  4948   003C70  EF42  F01E         	goto	l586
  4949   003C74                     l4263:
  4950                           
  4951                           ;MCAL_layer/TIMER2/timer2.c: 119:     {;MCAL_layer/TIMER2/timer2.c: 120:        TIMER2_H
      +                          UNDLER = timer2->interrupt_timer2;
  4952   003C74  C00D  FFD9         	movff	set_TIMER2_interrupt@timer2,fsr2l
  4953   003C78  C00E  FFDA         	movff	set_TIMER2_interrupt@timer2+1,fsr2h
  4954   003C7C  CFDE F0D2          	movff	postinc2,_TIMER2_HUNDLER
  4955   003C80  CFDD F0D3          	movff	postdec2,_TIMER2_HUNDLER+1
  4956   003C84                     l586:
  4957   003C84  0012               	return		;funcret
  4958   003C86                     __end_of_set_TIMER2_interrupt:
  4959                           	callstack 0
  4960                           
  4961 ;; *************** function _prescaler_timer_status *****************
  4962 ;; Defined at:
  4963 ;;		line 93 in file "MCAL_layer/TIMER2/timer2.c"
  4964 ;; Parameters:    Size  Location     Type
  4965 ;;  timer2          2   12[COMRAM] PTR struct .
  4966 ;;		 -> timer2_obj(6), 
  4967 ;; Auto vars:     Size  Location     Type
  4968 ;;  ret             1    0        unsigned char 
  4969 ;; Return value:  Size  Location     Type
  4970 ;;                  1    wreg      unsigned char 
  4971 ;; Registers used:
  4972 ;;		wreg, fsr2l, fsr2h, status,2, status,0
  4973 ;; Tracked objects:
  4974 ;;		On entry : 0/0
  4975 ;;		On exit  : 0/0
  4976 ;;		Unchanged: 0/0
  4977 ;; Data sizes:     COMRAM   BANK0   BANK1   BANK2   BANK3   BANK4   BANK5   BANK6   BANK7   BANK8   BANK9  BANK10  BANK1
      +1  BANK12  BANK13  BANK14  BANK15
  4978 ;;      Params:         2       0       0       0       0       0       0       0       0       0       0       0       
      +0       0       0       0       0
  4979 ;;      Locals:         0       0       0       0       0       0       0       0       0       0       0       0       
      +0       0       0       0       0
  4980 ;;      Temps:          1       0       0       0       0       0       0       0       0       0       0       0       
      +0       0       0       0       0
  4981 ;;      Totals:         3       0       0       0       0       0       0       0       0       0       0       0       
      +0       0       0       0       0
  4982 ;;Total ram usage:        3 bytes
  4983 ;; Hardware stack levels used: 1
  4984 ;; Hardware stack levels required when called: 4
  4985 ;; This function calls:
  4986 ;;		Nothing
  4987 ;; This function is called by:
  4988 ;;		_Timer2_init
  4989 ;; This function uses a non-reentrant model
  4990 ;;
  4991                           
  4992                           	psect	text31
  4993   003BD6                     __ptext31:
  4994                           	callstack 0
  4995   003BD6                     _prescaler_timer_status:
  4996                           	callstack 24
  4997   003BD6                     
  4998                           ;MCAL_layer/TIMER2/timer2.c: 95:     if(((void*)0) == timer2)
  4999   003BD6  500D               	movf	prescaler_timer_status@timer2^0,w,c
  5000   003BD8  100E               	iorwf	(prescaler_timer_status@timer2+1)^0,w,c
  5001   003BDA  A4D8               	btfss	status,2,c
  5002   003BDC  EFF2  F01D         	goto	u4381
  5003   003BE0  EFF4  F01D         	goto	u4380
  5004   003BE4                     u4381:
  5005   003BE4  EFF6  F01D         	goto	l4253
  5006   003BE8                     u4380:
  5007   003BE8  EF03  F01E         	goto	l576
  5008   003BEC                     l4253:
  5009                           
  5010                           ;MCAL_layer/TIMER2/timer2.c: 98:     {;MCAL_layer/TIMER2/timer2.c: 99:         T2CONbits
      +                          .T2CKPS = timer2->prescaler_timer2_value;
  5011   003BEC  EE20 F002          	lfsr	2,2
  5012   003BF0  500D               	movf	prescaler_timer_status@timer2^0,w,c
  5013   003BF2  26D9               	addwf	fsr2l,f,c
  5014   003BF4  500E               	movf	(prescaler_timer_status@timer2+1)^0,w,c
  5015   003BF6  22DA               	addwfc	fsr2h,f,c
  5016   003BF8  50DF               	movf	indf2,w,c
  5017   003BFA  6E0F               	movwf	??_prescaler_timer_status^0,c
  5018   003BFC  50CA               	movf	202,w,c	;volatile
  5019   003BFE  180F               	xorwf	??_prescaler_timer_status^0,w,c
  5020   003C00  0BFC               	andlw	-4
  5021   003C02  180F               	xorwf	??_prescaler_timer_status^0,w,c
  5022   003C04  6ECA               	movwf	202,c	;volatile
  5023   003C06                     l576:
  5024   003C06  0012               	return		;funcret
  5025   003C08                     __end_of_prescaler_timer_status:
  5026                           	callstack 0
  5027                           
  5028 ;; *************** function _CCP_Init *****************
  5029 ;; Defined at:
  5030 ;;		line 29 in file "MCAL_layer/CCP/ccp.c"
  5031 ;; Parameters:    Size  Location     Type
  5032 ;;  ccp_obj         2   12[BANK0 ] PTR struct .
  5033 ;;		 -> ccp_pwm_obj(13), 
  5034 ;; Auto vars:     Size  Location     Type
  5035 ;;  ret             1    0        unsigned char 
  5036 ;; Return value:  Size  Location     Type
  5037 ;;                  1    wreg      unsigned char 
  5038 ;; Registers used:
  5039 ;;		wreg, fsr2l, fsr2h, status,2, status,0, prodl, prodh, cstack
  5040 ;; Tracked objects:
  5041 ;;		On entry : 0/0
  5042 ;;		On exit  : 0/0
  5043 ;;		Unchanged: 0/0
  5044 ;; Data sizes:     COMRAM   BANK0   BANK1   BANK2   BANK3   BANK4   BANK5   BANK6   BANK7   BANK8   BANK9  BANK10  BANK1
      +1  BANK12  BANK13  BANK14  BANK15
  5045 ;;      Params:         0       2       0       0       0       0       0       0       0       0       0       0       
      +0       0       0       0       0
  5046 ;;      Locals:         0       0       0       0       0       0       0       0       0       0       0       0       
      +0       0       0       0       0
  5047 ;;      Temps:          1       0       0       0       0       0       0       0       0       0       0       0       
      +0       0       0       0       0
  5048 ;;      Totals:         1       2       0       0       0       0       0       0       0       0       0       0       
      +0       0       0       0       0
  5049 ;;Total ram usage:        3 bytes
  5050 ;; Hardware stack levels used: 1
  5051 ;; Hardware stack levels required when called: 6
  5052 ;; This function calls:
  5053 ;;		_gpio_pin_direction_intialize
  5054 ;;		_interrupt_ccp1_cfg
  5055 ;;		_set_pwm_period
  5056 ;; This function is called by:
  5057 ;;		_application_initialize
  5058 ;; This function uses a non-reentrant model
  5059 ;;
  5060                           
  5061                           	psect	text32
  5062   0028CA                     __ptext32:
  5063                           	callstack 0
  5064   0028CA                     _CCP_Init:
  5065                           	callstack 23
  5066   0028CA                     
  5067                           ;MCAL_layer/CCP/ccp.c: 32:     if(((void*)0) == ccp_obj)
  5068   0028CA  0100               	movlb	0	; () banked
  5069   0028CC  51EE               	movf	CCP_Init@ccp_obj& (0+255),w,b
  5070   0028CE  11EF               	iorwf	(CCP_Init@ccp_obj+1)& (0+255),w,b
  5071   0028D0  A4D8               	btfss	status,2,c
  5072   0028D2  EF6D  F014         	goto	u6421
  5073   0028D6  EF6F  F014         	goto	u6420
  5074   0028DA                     u6421:
  5075   0028DA  EF71  F014         	goto	l5663
  5076   0028DE                     u6420:
  5077   0028DE                     
  5078                           ; BSR set to: 0
  5079   0028DE  EF03  F015         	goto	l361
  5080   0028E2                     l5663:
  5081                           
  5082                           ; BSR set to: 0
  5083                           ;MCAL_layer/CCP/ccp.c: 35:     {;MCAL_layer/CCP/ccp.c: 36:         if(ccp_obj->ccp_mode 
      +                          == 0x00)
  5084   0028E2  EE20 F00B          	lfsr	2,11
  5085   0028E6  51EE               	movf	CCP_Init@ccp_obj& (0+255),w,b
  5086   0028E8  26D9               	addwf	fsr2l,f,c
  5087   0028EA  51EF               	movf	(CCP_Init@ccp_obj+1)& (0+255),w,b
  5088   0028EC  22DA               	addwfc	fsr2h,f,c
  5089   0028EE  50DF               	movf	indf2,w,c
  5090   0028F0  A4D8               	btfss	status,2,c
  5091   0028F2  EF7D  F014         	goto	u6431
  5092   0028F6  EF7F  F014         	goto	u6430
  5093   0028FA                     u6431:
  5094   0028FA  EF83  F014         	goto	l5667
  5095   0028FE                     u6430:
  5096   0028FE                     
  5097                           ; BSR set to: 0
  5098                           ;MCAL_layer/CCP/ccp.c: 37:             CCP1CONbits.CCP1M = ((uint8)0x00);
  5099   0028FE  0EF0               	movlw	-16
  5100   002900  16BD               	andwf	189,f,c	;volatile
  5101   002902  EF93  F014         	goto	l5671
  5102   002906                     l5667:
  5103                           
  5104                           ; BSR set to: 0
  5105   002906  EE20 F00B          	lfsr	2,11
  5106   00290A  51EE               	movf	CCP_Init@ccp_obj& (0+255),w,b
  5107   00290C  26D9               	addwf	fsr2l,f,c
  5108   00290E  51EF               	movf	(CCP_Init@ccp_obj+1)& (0+255),w,b
  5109   002910  22DA               	addwfc	fsr2h,f,c
  5110   002912  04DE               	decf	postinc2,w,c
  5111   002914  A4D8               	btfss	status,2,c
  5112   002916  EF8F  F014         	goto	u6441
  5113   00291A  EF91  F014         	goto	u6440
  5114   00291E                     u6441:
  5115   00291E  EF93  F014         	goto	l5671
  5116   002922                     u6440:
  5117   002922                     
  5118                           ; BSR set to: 0
  5119                           ;MCAL_layer/CCP/ccp.c: 40:             CCP2CONbits.CCP2M = ((uint8)0x00);
  5120   002922  0EF0               	movlw	-16
  5121   002924  16BA               	andwf	186,f,c	;volatile
  5122   002926                     l5671:
  5123                           
  5124                           ; BSR set to: 0
  5125                           ;MCAL_layer/CCP/ccp.c: 44:         if(ccp_obj->ccp_mode == 0x00)
  5126   002926  EE20 F00B          	lfsr	2,11
  5127   00292A  51EE               	movf	CCP_Init@ccp_obj& (0+255),w,b
  5128   00292C  26D9               	addwf	fsr2l,f,c
  5129   00292E  51EF               	movf	(CCP_Init@ccp_obj+1)& (0+255),w,b
  5130   002930  22DA               	addwfc	fsr2h,f,c
  5131   002932  50DF               	movf	indf2,w,c
  5132   002934  A4D8               	btfss	status,2,c
  5133   002936  EF9F  F014         	goto	u6451
  5134   00293A  EFA1  F014         	goto	u6450
  5135   00293E                     u6451:
  5136   00293E  EFC6  F014         	goto	l5681
  5137   002942                     u6450:
  5138   002942                     
  5139                           ; BSR set to: 0
  5140                           ;MCAL_layer/CCP/ccp.c: 45:         {;MCAL_layer/CCP/ccp.c: 80:             if (ccp_obj->
      +                          ccp_mode_module == 0x02)
  5141   002942  EE20 F00A          	lfsr	2,10
  5142   002946  51EE               	movf	CCP_Init@ccp_obj& (0+255),w,b
  5143   002948  26D9               	addwf	fsr2l,f,c
  5144   00294A  51EF               	movf	(CCP_Init@ccp_obj+1)& (0+255),w,b
  5145   00294C  22DA               	addwfc	fsr2h,f,c
  5146   00294E  0E02               	movlw	2
  5147   002950  18DE               	xorwf	postinc2,w,c
  5148   002952  A4D8               	btfss	status,2,c
  5149   002954  EFAE  F014         	goto	u6461
  5150   002958  EFB0  F014         	goto	u6460
  5151   00295C                     u6461:
  5152   00295C  EFF7  F014         	goto	l5691
  5153   002960                     u6460:
  5154   002960                     
  5155                           ; BSR set to: 0
  5156                           ;MCAL_layer/CCP/ccp.c: 81:             {;MCAL_layer/CCP/ccp.c: 82:                 set_p
      +                          wm_period(ccp_obj);
  5157   002960  C0EE  F0E2         	movff	CCP_Init@ccp_obj,set_pwm_period@ccp_obj
  5158   002964  C0EF  F0E3         	movff	CCP_Init@ccp_obj+1,set_pwm_period@ccp_obj+1
  5159   002968  ECAD  F013         	call	_set_pwm_period	;wreg free
  5160                           
  5161                           ;MCAL_layer/CCP/ccp.c: 83:                 gpio_pin_direction_intialize(&(ccp_obj->ccp_p
      +                          in));
  5162   00296C  0E0C               	movlw	12
  5163   00296E  0100               	movlb	0	; () banked
  5164   002970  25EE               	addwf	CCP_Init@ccp_obj& (0+255),w,b
  5165   002972  6E0D               	movwf	gpio_pin_direction_intialize@Pin_Config^0,c
  5166   002974  0E00               	movlw	0
  5167   002976  21EF               	addwfc	(CCP_Init@ccp_obj+1)& (0+255),w,b
  5168   002978  6E0E               	movwf	(gpio_pin_direction_intialize@Pin_Config+1)^0,c
  5169   00297A  EC2E  F016         	call	_gpio_pin_direction_intialize	;wreg free
  5170   00297E                     
  5171                           ;MCAL_layer/CCP/ccp.c: 84:                 (T2CONbits.TMR2ON = 1);
  5172   00297E  84CA               	bsf	202,2,c	;volatile
  5173   002980                     
  5174                           ;MCAL_layer/CCP/ccp.c: 85:                 (CCP1CONbits.CCP1M = 0x0C);
  5175   002980  50BD               	movf	189,w,c	;volatile
  5176   002982  0BF0               	andlw	-16
  5177   002984  090C               	iorlw	12
  5178   002986  6EBD               	movwf	189,c	;volatile
  5179   002988  EFF7  F014         	goto	l5691
  5180   00298C                     l5681:
  5181                           
  5182                           ; BSR set to: 0
  5183   00298C  EE20 F00B          	lfsr	2,11
  5184   002990  51EE               	movf	CCP_Init@ccp_obj& (0+255),w,b
  5185   002992  26D9               	addwf	fsr2l,f,c
  5186   002994  51EF               	movf	(CCP_Init@ccp_obj+1)& (0+255),w,b
  5187   002996  22DA               	addwfc	fsr2h,f,c
  5188   002998  04DE               	decf	postinc2,w,c
  5189   00299A  A4D8               	btfss	status,2,c
  5190   00299C  EFD2  F014         	goto	u6471
  5191   0029A0  EFD4  F014         	goto	u6470
  5192   0029A4                     u6471:
  5193   0029A4  EFF7  F014         	goto	l5691
  5194   0029A8                     u6470:
  5195   0029A8                     
  5196                           ; BSR set to: 0
  5197                           ;MCAL_layer/CCP/ccp.c: 130:             if (ccp_obj->ccp_mode_module == 0x02)
  5198   0029A8  EE20 F00A          	lfsr	2,10
  5199   0029AC  51EE               	movf	CCP_Init@ccp_obj& (0+255),w,b
  5200   0029AE  26D9               	addwf	fsr2l,f,c
  5201   0029B0  51EF               	movf	(CCP_Init@ccp_obj+1)& (0+255),w,b
  5202   0029B2  22DA               	addwfc	fsr2h,f,c
  5203   0029B4  0E02               	movlw	2
  5204   0029B6  18DE               	xorwf	postinc2,w,c
  5205   0029B8  A4D8               	btfss	status,2,c
  5206   0029BA  EFE1  F014         	goto	u6481
  5207   0029BE  EFE3  F014         	goto	u6480
  5208   0029C2                     u6481:
  5209   0029C2  EFF7  F014         	goto	l5691
  5210   0029C6                     u6480:
  5211   0029C6                     
  5212                           ; BSR set to: 0
  5213                           ;MCAL_layer/CCP/ccp.c: 131:             {;MCAL_layer/CCP/ccp.c: 132:                 set
      +                          _pwm_period(ccp_obj);
  5214   0029C6  C0EE  F0E2         	movff	CCP_Init@ccp_obj,set_pwm_period@ccp_obj
  5215   0029CA  C0EF  F0E3         	movff	CCP_Init@ccp_obj+1,set_pwm_period@ccp_obj+1
  5216   0029CE  ECAD  F013         	call	_set_pwm_period	;wreg free
  5217                           
  5218                           ;MCAL_layer/CCP/ccp.c: 133:                 gpio_pin_direction_intialize(&(ccp_obj->ccp_
      +                          pin));
  5219   0029D2  0E0C               	movlw	12
  5220   0029D4  0100               	movlb	0	; () banked
  5221   0029D6  25EE               	addwf	CCP_Init@ccp_obj& (0+255),w,b
  5222   0029D8  6E0D               	movwf	gpio_pin_direction_intialize@Pin_Config^0,c
  5223   0029DA  0E00               	movlw	0
  5224   0029DC  21EF               	addwfc	(CCP_Init@ccp_obj+1)& (0+255),w,b
  5225   0029DE  6E0E               	movwf	(gpio_pin_direction_intialize@Pin_Config+1)^0,c
  5226   0029E0  EC2E  F016         	call	_gpio_pin_direction_intialize	;wreg free
  5227   0029E4                     
  5228                           ;MCAL_layer/CCP/ccp.c: 134:                 (T2CONbits.TMR2ON = 1);
  5229   0029E4  84CA               	bsf	202,2,c	;volatile
  5230   0029E6                     
  5231                           ;MCAL_layer/CCP/ccp.c: 135:                 (CCP2CONbits.CCP2M = 0x0C);
  5232   0029E6  50BA               	movf	186,w,c	;volatile
  5233   0029E8  0BF0               	andlw	-16
  5234   0029EA  090C               	iorlw	12
  5235   0029EC  6EBA               	movwf	186,c	;volatile
  5236   0029EE                     l5691:
  5237                           
  5238                           ;MCAL_layer/CCP/ccp.c: 140:        interrupt_ccp1_cfg(ccp_obj);
  5239   0029EE  C0EE  F00D         	movff	CCP_Init@ccp_obj,interrupt_ccp1_cfg@ccp_obj
  5240   0029F2  C0EF  F00E         	movff	CCP_Init@ccp_obj+1,interrupt_ccp1_cfg@ccp_obj+1
  5241   0029F6  EC55  F01E         	call	_interrupt_ccp1_cfg	;wreg free
  5242                           
  5243                           ;MCAL_layer/CCP/ccp.c: 141:       interrupt_ccp1_cfg(ccp_obj);
  5244   0029FA  C0EE  F00D         	movff	CCP_Init@ccp_obj,interrupt_ccp1_cfg@ccp_obj
  5245   0029FE  C0EF  F00E         	movff	CCP_Init@ccp_obj+1,interrupt_ccp1_cfg@ccp_obj+1
  5246   002A02  EC55  F01E         	call	_interrupt_ccp1_cfg	;wreg free
  5247   002A06                     l361:
  5248   002A06  0012               	return		;funcret
  5249   002A08                     __end_of_CCP_Init:
  5250                           	callstack 0
  5251                           
  5252 ;; *************** function _set_pwm_period *****************
  5253 ;; Defined at:
  5254 ;;		line 163 in file "MCAL_layer/CCP/ccp.c"
  5255 ;; Parameters:    Size  Location     Type
  5256 ;;  ccp_obj         2    0[BANK0 ] PTR struct .
  5257 ;;		 -> ccp_pwm_obj(13), 
  5258 ;; Auto vars:     Size  Location     Type
  5259 ;;  ret             1    0        unsigned char 
  5260 ;; Return value:  Size  Location     Type
  5261 ;;                  1    wreg      unsigned char 
  5262 ;; Registers used:
  5263 ;;		wreg, fsr2l, fsr2h, status,2, status,0, prodl, prodh, cstack
  5264 ;; Tracked objects:
  5265 ;;		On entry : 0/0
  5266 ;;		On exit  : 0/0
  5267 ;;		Unchanged: 0/0
  5268 ;; Data sizes:     COMRAM   BANK0   BANK1   BANK2   BANK3   BANK4   BANK5   BANK6   BANK7   BANK8   BANK9  BANK10  BANK1
      +1  BANK12  BANK13  BANK14  BANK15
  5269 ;;      Params:         0       2       0       0       0       0       0       0       0       0       0       0       
      +0       0       0       0       0
  5270 ;;      Locals:         0       8       0       0       0       0       0       0       0       0       0       0       
      +0       0       0       0       0
  5271 ;;      Temps:          0       2       0       0       0       0       0       0       0       0       0       0       
      +0       0       0       0       0
  5272 ;;      Totals:         0      12       0       0       0       0       0       0       0       0       0       0       
      +0       0       0       0       0
  5273 ;;Total ram usage:       12 bytes
  5274 ;; Hardware stack levels used: 1
  5275 ;; Hardware stack levels required when called: 5
  5276 ;; This function calls:
  5277 ;;		___fladd
  5278 ;;		___fldiv
  5279 ;;		___flmul
  5280 ;;		___fltol
  5281 ;;		___xxtofl
  5282 ;; This function is called by:
  5283 ;;		_CCP_Init
  5284 ;; This function uses a non-reentrant model
  5285 ;;
  5286                           
  5287                           	psect	text33
  5288   00275A                     __ptext33:
  5289                           	callstack 0
  5290   00275A                     _set_pwm_period:
  5291                           	callstack 23
  5292   00275A                     
  5293                           ;MCAL_layer/CCP/ccp.c: 166:     if(((void*)0) == ccp_obj)
  5294   00275A  0100               	movlb	0	; () banked
  5295   00275C  51E2               	movf	set_pwm_period@ccp_obj& (0+255),w,b
  5296   00275E  11E3               	iorwf	(set_pwm_period@ccp_obj+1)& (0+255),w,b
  5297   002760  A4D8               	btfss	status,2,c
  5298   002762  EFB5  F013         	goto	u6411
  5299   002766  EFB7  F013         	goto	u6410
  5300   00276A                     u6411:
  5301   00276A  EFB9  F013         	goto	l5653
  5302   00276E                     u6410:
  5303   00276E                     
  5304                           ; BSR set to: 0
  5305   00276E  EF64  F014         	goto	l375
  5306   002772                     l5653:
  5307                           
  5308                           ; BSR set to: 0
  5309                           ;MCAL_layer/CCP/ccp.c: 169:     {;MCAL_layer/CCP/ccp.c: 170:         PR2 = (uint8)(((flo
      +                          at)4000000UL / ((float)ccp_obj->pwm_freq * 4.0 * (float)ccp_obj->timer2_prescaler *
  5310   002772  0E00               	movlw	0
  5311   002774  6E1F               	movwf	___flmul@a^0,c
  5312   002776  0E00               	movlw	0
  5313   002778  6E20               	movwf	(___flmul@a+1)^0,c
  5314   00277A  0E80               	movlw	128
  5315   00277C  6E21               	movwf	(___flmul@a+2)^0,c
  5316   00277E  0E40               	movlw	64
  5317   002780  6E22               	movwf	(___flmul@a+3)^0,c
  5318   002782  EE20 F006          	lfsr	2,6
  5319   002786  51E2               	movf	set_pwm_period@ccp_obj& (0+255),w,b
  5320   002788  26D9               	addwf	fsr2l,f,c
  5321   00278A  51E3               	movf	(set_pwm_period@ccp_obj+1)& (0+255),w,b
  5322   00278C  22DA               	addwfc	fsr2h,f,c
  5323   00278E  CFDE F0E4          	movff	postinc2,??_set_pwm_period
  5324   002792  CFDD F0E5          	movff	postdec2,??_set_pwm_period+1
  5325   002796  C0E4  F00D         	movff	??_set_pwm_period,___xxtofl@val
  5326   00279A  C0E5  F00E         	movff	??_set_pwm_period+1,___xxtofl@val+1
  5327   00279E  6A0F               	clrf	(___xxtofl@val+2)^0,c
  5328   0027A0  6A10               	clrf	(___xxtofl@val+3)^0,c
  5329   0027A2  0E00               	movlw	0
  5330   0027A4  EC4E  F011         	call	___xxtofl
  5331   0027A8  C00D  F01B         	movff	?___xxtofl,___flmul@b
  5332   0027AC  C00E  F01C         	movff	?___xxtofl+1,___flmul@b+1
  5333   0027B0  C00F  F01D         	movff	?___xxtofl+2,___flmul@b+2
  5334   0027B4  C010  F01E         	movff	?___xxtofl+3,___flmul@b+3
  5335   0027B8  EC99  F00A         	call	___flmul	;wreg free
  5336   0027BC  C01B  F0E6         	movff	?___flmul,_set_pwm_period$2625
  5337   0027C0  C01C  F0E7         	movff	?___flmul+1,_set_pwm_period$2625+1
  5338   0027C4  C01D  F0E8         	movff	?___flmul+2,_set_pwm_period$2625+2
  5339   0027C8  C01E  F0E9         	movff	?___flmul+3,_set_pwm_period$2625+3
  5340                           
  5341                           ;MCAL_layer/CCP/ccp.c: 169:     {;MCAL_layer/CCP/ccp.c: 170:         PR2 = (uint8)(((flo
      +                          at)4000000UL / ((float)ccp_obj->pwm_freq * 4.0 * (float)ccp_obj->timer2_prescaler *
  5342   0027CC  0100               	movlb	0	; () banked
  5343   0027CE  EE20 F008          	lfsr	2,8
  5344   0027D2  51E2               	movf	set_pwm_period@ccp_obj& (0+255),w,b
  5345   0027D4  26D9               	addwf	fsr2l,f,c
  5346   0027D6  51E3               	movf	(set_pwm_period@ccp_obj+1)& (0+255),w,b
  5347   0027D8  22DA               	addwfc	fsr2h,f,c
  5348   0027DA  50DF               	movf	indf2,w,c
  5349   0027DC  6FE4               	movwf	??_set_pwm_period& (0+255),b
  5350   0027DE  51E4               	movf	??_set_pwm_period& (0+255),w,b
  5351   0027E0  6E0D               	movwf	___xxtofl@val^0,c
  5352   0027E2  6A0E               	clrf	(___xxtofl@val+1)^0,c
  5353   0027E4  6A0F               	clrf	(___xxtofl@val+2)^0,c
  5354   0027E6  6A10               	clrf	(___xxtofl@val+3)^0,c
  5355   0027E8  0E00               	movlw	0
  5356   0027EA  EC4E  F011         	call	___xxtofl
  5357   0027EE  C00D  F01F         	movff	?___xxtofl,___flmul@a
  5358   0027F2  C00E  F020         	movff	?___xxtofl+1,___flmul@a+1
  5359   0027F6  C00F  F021         	movff	?___xxtofl+2,___flmul@a+2
  5360   0027FA  C010  F022         	movff	?___xxtofl+3,___flmul@a+3
  5361   0027FE  C0E6  F01B         	movff	_set_pwm_period$2625,___flmul@b
  5362   002802  C0E7  F01C         	movff	_set_pwm_period$2625+1,___flmul@b+1
  5363   002806  C0E8  F01D         	movff	_set_pwm_period$2625+2,___flmul@b+2
  5364   00280A  C0E9  F01E         	movff	_set_pwm_period$2625+3,___flmul@b+3
  5365   00280E  EC99  F00A         	call	___flmul	;wreg free
  5366   002812  C01B  F0EA         	movff	?___flmul,_set_pwm_period$2626
  5367   002816  C01C  F0EB         	movff	?___flmul+1,_set_pwm_period$2626+1
  5368   00281A  C01D  F0EC         	movff	?___flmul+2,_set_pwm_period$2626+2
  5369   00281E  C01E  F0ED         	movff	?___flmul+3,_set_pwm_period$2626+3
  5370                           
  5371                           ;MCAL_layer/CCP/ccp.c: 169:     {;MCAL_layer/CCP/ccp.c: 170:         PR2 = (uint8)(((flo
      +                          at)4000000UL / ((float)ccp_obj->pwm_freq * 4.0 * (float)ccp_obj->timer2_prescaler *
  5372   002822  0E00               	movlw	0
  5373   002824  6E51               	movwf	___fladd@a^0,c
  5374   002826  0E00               	movlw	0
  5375   002828  6E52               	movwf	(___fladd@a+1)^0,c
  5376   00282A  0E80               	movlw	128
  5377   00282C  6E53               	movwf	(___fladd@a+2)^0,c
  5378   00282E  0EBF               	movlw	191
  5379   002830  6E54               	movwf	(___fladd@a+3)^0,c
  5380   002832  0100               	movlb	0	; () banked
  5381   002834  EE20 F009          	lfsr	2,9
  5382   002838  51E2               	movf	set_pwm_period@ccp_obj& (0+255),w,b
  5383   00283A  26D9               	addwf	fsr2l,f,c
  5384   00283C  51E3               	movf	(set_pwm_period@ccp_obj+1)& (0+255),w,b
  5385   00283E  22DA               	addwfc	fsr2h,f,c
  5386   002840  50DF               	movf	indf2,w,c
  5387   002842  6FE4               	movwf	??_set_pwm_period& (0+255),b
  5388   002844  51E4               	movf	??_set_pwm_period& (0+255),w,b
  5389   002846  6E0D               	movwf	___xxtofl@val^0,c
  5390   002848  6A0E               	clrf	(___xxtofl@val+1)^0,c
  5391   00284A  6A0F               	clrf	(___xxtofl@val+2)^0,c
  5392   00284C  6A10               	clrf	(___xxtofl@val+3)^0,c
  5393   00284E  0E00               	movlw	0
  5394   002850  EC4E  F011         	call	___xxtofl
  5395   002854  C00D  F01F         	movff	?___xxtofl,___flmul@a
  5396   002858  C00E  F020         	movff	?___xxtofl+1,___flmul@a+1
  5397   00285C  C00F  F021         	movff	?___xxtofl+2,___flmul@a+2
  5398   002860  C010  F022         	movff	?___xxtofl+3,___flmul@a+3
  5399   002864  C0EA  F01B         	movff	_set_pwm_period$2626,___flmul@b
  5400   002868  C0EB  F01C         	movff	_set_pwm_period$2626+1,___flmul@b+1
  5401   00286C  C0EC  F01D         	movff	_set_pwm_period$2626+2,___flmul@b+2
  5402   002870  C0ED  F01E         	movff	_set_pwm_period$2626+3,___flmul@b+3
  5403   002874  EC99  F00A         	call	___flmul	;wreg free
  5404   002878  C01B  F038         	movff	?___flmul,___fldiv@a
  5405   00287C  C01C  F039         	movff	?___flmul+1,___fldiv@a+1
  5406   002880  C01D  F03A         	movff	?___flmul+2,___fldiv@a+2
  5407   002884  C01E  F03B         	movff	?___flmul+3,___fldiv@a+3
  5408   002888  0E00               	movlw	0
  5409   00288A  6E34               	movwf	___fldiv@b^0,c
  5410   00288C  0E24               	movlw	36
  5411   00288E  6E35               	movwf	(___fldiv@b+1)^0,c
  5412   002890  0E74               	movlw	116
  5413   002892  6E36               	movwf	(___fldiv@b+2)^0,c
  5414   002894  0E4A               	movlw	74
  5415   002896  6E37               	movwf	(___fldiv@b+3)^0,c
  5416   002898  ECAE  F00C         	call	___fldiv	;wreg free
  5417   00289C  C034  F04D         	movff	?___fldiv,___fladd@b
  5418   0028A0  C035  F04E         	movff	?___fldiv+1,___fladd@b+1
  5419   0028A4  C036  F04F         	movff	?___fldiv+2,___fladd@b+2
  5420   0028A8  C037  F050         	movff	?___fldiv+3,___fladd@b+3
  5421   0028AC  EC39  F008         	call	___fladd	;wreg free
  5422   0028B0  C04D  F05D         	movff	?___fladd,___fltol@f1
  5423   0028B4  C04E  F05E         	movff	?___fladd+1,___fltol@f1+1
  5424   0028B8  C04F  F05F         	movff	?___fladd+2,___fltol@f1+2
  5425   0028BC  C050  F060         	movff	?___fladd+3,___fltol@f1+3
  5426   0028C0  ECDF  F017         	call	___fltol	;wreg free
  5427   0028C4  505D               	movf	?___fltol^0,w,c
  5428   0028C6  6ECB               	movwf	203,c	;volatile
  5429   0028C8                     l375:
  5430   0028C8  0012               	return		;funcret
  5431   0028CA                     __end_of_set_pwm_period:
  5432                           	callstack 0
  5433                           
  5434 ;; *************** function _interrupt_ccp1_cfg *****************
  5435 ;; Defined at:
  5436 ;;		line 274 in file "MCAL_layer/CCP/ccp.c"
  5437 ;; Parameters:    Size  Location     Type
  5438 ;;  ccp_obj         2   12[COMRAM] PTR struct .
  5439 ;;		 -> ccp_pwm_obj(13), 
  5440 ;; Auto vars:     Size  Location     Type
  5441 ;;		None
  5442 ;; Return value:  Size  Location     Type
  5443 ;;                  1    wreg      unsigned char 
  5444 ;; Registers used:
  5445 ;;		fsr2l, fsr2h
  5446 ;; Tracked objects:
  5447 ;;		On entry : 0/0
  5448 ;;		On exit  : 0/0
  5449 ;;		Unchanged: 0/0
  5450 ;; Data sizes:     COMRAM   BANK0   BANK1   BANK2   BANK3   BANK4   BANK5   BANK6   BANK7   BANK8   BANK9  BANK10  BANK1
      +1  BANK12  BANK13  BANK14  BANK15
  5451 ;;      Params:         2       0       0       0       0       0       0       0       0       0       0       0       
      +0       0       0       0       0
  5452 ;;      Locals:         0       0       0       0       0       0       0       0       0       0       0       0       
      +0       0       0       0       0
  5453 ;;      Temps:          0       0       0       0       0       0       0       0       0       0       0       0       
      +0       0       0       0       0
  5454 ;;      Totals:         2       0       0       0       0       0       0       0       0       0       0       0       
      +0       0       0       0       0
  5455 ;;Total ram usage:        2 bytes
  5456 ;; Hardware stack levels used: 1
  5457 ;; Hardware stack levels required when called: 4
  5458 ;; This function calls:
  5459 ;;		Nothing
  5460 ;; This function is called by:
  5461 ;;		_CCP_Init
  5462 ;; This function uses a non-reentrant model
  5463 ;;
  5464                           
  5465                           	psect	text34
  5466   003CAA                     __ptext34:
  5467                           	callstack 0
  5468   003CAA                     _interrupt_ccp1_cfg:
  5469                           	callstack 24
  5470   003CAA                     
  5471                           ;MCAL_layer/CCP/ccp.c: 278:     (PIE1bits.CCP1IE = 1);
  5472   003CAA  849D               	bsf	157,2,c	;volatile
  5473                           
  5474                           ;MCAL_layer/CCP/ccp.c: 279:     (PIR1bits.CCP1IF = 0);
  5475   003CAC  949E               	bcf	158,2,c	;volatile
  5476   003CAE                     
  5477                           ;MCAL_layer/CCP/ccp.c: 280:     handler_cpp1 = ccp_obj->interrupt_ccp1;
  5478   003CAE  C00D  FFD9         	movff	interrupt_ccp1_cfg@ccp_obj,fsr2l
  5479   003CB2  C00E  FFDA         	movff	interrupt_ccp1_cfg@ccp_obj+1,fsr2h
  5480   003CB6  CFDE F06C          	movff	postinc2,_handler_cpp1
  5481   003CBA  CFDD F06D          	movff	postdec2,_handler_cpp1+1
  5482   003CBE                     
  5483                           ;MCAL_layer/CCP/ccp.c: 296:     (INTCONbits.GIE = 1);
  5484   003CBE  8EF2               	bsf	242,7,c	;volatile
  5485   003CC0                     
  5486                           ;MCAL_layer/CCP/ccp.c: 297:     (INTCONbits.PEIE = 1);
  5487   003CC0  8CF2               	bsf	242,6,c	;volatile
  5488   003CC2  0012               	return		;funcret
  5489   003CC4                     __end_of_interrupt_ccp1_cfg:
  5490                           	callstack 0
  5491                           
  5492 ;; *************** function _gpio_pin_direction_intialize *****************
  5493 ;; Defined at:
  5494 ;;		line 31 in file "MCAL_layer/GPIO/gpio.c"
  5495 ;; Parameters:    Size  Location     Type
  5496 ;;  Pin_Config      2   12[COMRAM] PTR const struct .
  5497 ;;		 -> ccp_pwm_obj.ccp_pin(1), ccp_pwm_obj(13), adc_0.adc_pin_confg(1), adc_0(8), 
  5498 ;;		 -> motor.motor_confg(2), motor(2), lcd_4bit.lcd_pin(4), lcd_4bit(6), 
  5499 ;; Auto vars:     Size  Location     Type
  5500 ;;  ret             1   20[COMRAM] unsigned char 
  5501 ;; Return value:  Size  Location     Type
  5502 ;;                  1    wreg      unsigned char 
  5503 ;; Registers used:
  5504 ;;		wreg, fsr2l, fsr2h, status,2, status,0, prodl, prodh
  5505 ;; Tracked objects:
  5506 ;;		On entry : 0/0
  5507 ;;		On exit  : 0/0
  5508 ;;		Unchanged: 0/0
  5509 ;; Data sizes:     COMRAM   BANK0   BANK1   BANK2   BANK3   BANK4   BANK5   BANK6   BANK7   BANK8   BANK9  BANK10  BANK1
      +1  BANK12  BANK13  BANK14  BANK15
  5510 ;;      Params:         2       0       0       0       0       0       0       0       0       0       0       0       
      +0       0       0       0       0
  5511 ;;      Locals:         1       0       0       0       0       0       0       0       0       0       0       0       
      +0       0       0       0       0
  5512 ;;      Temps:          6       0       0       0       0       0       0       0       0       0       0       0       
      +0       0       0       0       0
  5513 ;;      Totals:         9       0       0       0       0       0       0       0       0       0       0       0       
      +0       0       0       0       0
  5514 ;;Total ram usage:        9 bytes
  5515 ;; Hardware stack levels used: 1
  5516 ;; Hardware stack levels required when called: 4
  5517 ;; This function calls:
  5518 ;;		Nothing
  5519 ;; This function is called by:
  5520 ;;		_adc_init
  5521 ;;		_CCP_Init
  5522 ;;		_gpio_pin_intialize
  5523 ;; This function uses a non-reentrant model
  5524 ;;
  5525                           
  5526                           	psect	text35
  5527   002C5C                     __ptext35:
  5528                           	callstack 0
  5529   002C5C                     _gpio_pin_direction_intialize:
  5530                           	callstack 23
  5531   002C5C                     
  5532                           ;MCAL_layer/GPIO/gpio.c: 32:     Std_ReturnType ret = (Std_ReturnType)0x01;
  5533   002C5C  0E01               	movlw	1
  5534   002C5E  6E15               	movwf	gpio_pin_direction_intialize@ret^0,c
  5535   002C60                     
  5536                           ;MCAL_layer/GPIO/gpio.c: 33:     if(((void*)0) == Pin_Config || Pin_Config->pin > 8)
  5537   002C60  500D               	movf	gpio_pin_direction_intialize@Pin_Config^0,w,c
  5538   002C62  100E               	iorwf	(gpio_pin_direction_intialize@Pin_Config+1)^0,w,c
  5539   002C64  B4D8               	btfsc	status,2,c
  5540   002C66  EF37  F016         	goto	u3181
  5541   002C6A  EF39  F016         	goto	u3180
  5542   002C6E                     u3181:
  5543   002C6E  EF4A  F016         	goto	l3539
  5544   002C72                     u3180:
  5545   002C72  C00D  FFD9         	movff	gpio_pin_direction_intialize@Pin_Config,fsr2l
  5546   002C76  C00E  FFDA         	movff	gpio_pin_direction_intialize@Pin_Config+1,fsr2h
  5547   002C7A  30DF               	rrcf	223,w,c
  5548   002C7C  32E8               	rrcf	wreg,f,c
  5549   002C7E  32E8               	rrcf	wreg,f,c
  5550   002C80  0B07               	andlw	7
  5551   002C82  6E0F               	movwf	??_gpio_pin_direction_intialize^0,c
  5552   002C84  0E08               	movlw	8
  5553   002C86  640F               	cpfsgt	??_gpio_pin_direction_intialize^0,c
  5554   002C88  EF48  F016         	goto	u3191
  5555   002C8C  EF4A  F016         	goto	u3190
  5556   002C90                     u3191:
  5557   002C90  EF4E  F016         	goto	l3541
  5558   002C94                     u3190:
  5559   002C94                     l3539:
  5560                           
  5561                           ;MCAL_layer/GPIO/gpio.c: 34:         ret = (Std_ReturnType)0x00;
  5562   002C94  0E00               	movlw	0
  5563   002C96  6E15               	movwf	gpio_pin_direction_intialize@ret^0,c
  5564   002C98  EFBE  F016         	goto	l449
  5565   002C9C                     l3541:
  5566                           
  5567                           ;MCAL_layer/GPIO/gpio.c: 36:     {;MCAL_layer/GPIO/gpio.c: 37:         if(Pin_Config->di
      +                          rection == OUTPUT)
  5568   002C9C  C00D  FFD9         	movff	gpio_pin_direction_intialize@Pin_Config,fsr2l
  5569   002CA0  C00E  FFDA         	movff	gpio_pin_direction_intialize@Pin_Config+1,fsr2h
  5570   002CA4  BCDF               	btfsc	indf2,6,c
  5571   002CA6  EF57  F016         	goto	u3201
  5572   002CAA  EF59  F016         	goto	u3200
  5573   002CAE                     u3201:
  5574   002CAE  EF8A  F016         	goto	l3545
  5575   002CB2                     u3200:
  5576   002CB2                     
  5577                           ;MCAL_layer/GPIO/gpio.c: 38:             (*tris_reg[Pin_Config->port] &= ~((uint8)1 << P
      +                          in_Config->pin));
  5578   002CB2  C00D  FFD9         	movff	gpio_pin_direction_intialize@Pin_Config,fsr2l
  5579   002CB6  C00E  FFDA         	movff	gpio_pin_direction_intialize@Pin_Config+1,fsr2h
  5580   002CBA  30DF               	rrcf	223,w,c
  5581   002CBC  32E8               	rrcf	wreg,f,c
  5582   002CBE  32E8               	rrcf	wreg,f,c
  5583   002CC0  0B07               	andlw	7
  5584   002CC2  6E0F               	movwf	??_gpio_pin_direction_intialize^0,c
  5585   002CC4  0E01               	movlw	1
  5586   002CC6  6E10               	movwf	(??_gpio_pin_direction_intialize+1)^0,c
  5587   002CC8  2A0F               	incf	??_gpio_pin_direction_intialize^0,f,c
  5588   002CCA  EF69  F016         	goto	u3214
  5589   002CCE                     u3215:
  5590   002CCE  90D8               	bcf	status,0,c
  5591   002CD0  3610               	rlcf	(??_gpio_pin_direction_intialize+1)^0,f,c
  5592   002CD2                     u3214:
  5593   002CD2  2E0F               	decfsz	??_gpio_pin_direction_intialize^0,f,c
  5594   002CD4  EF67  F016         	goto	u3215
  5595   002CD8  5010               	movf	(??_gpio_pin_direction_intialize+1)^0,w,c
  5596   002CDA  0AFF               	xorlw	255
  5597   002CDC  6E11               	movwf	(??_gpio_pin_direction_intialize+2)^0,c
  5598   002CDE  C00D  FFD9         	movff	gpio_pin_direction_intialize@Pin_Config,fsr2l
  5599   002CE2  C00E  FFDA         	movff	gpio_pin_direction_intialize@Pin_Config+1,fsr2h
  5600   002CE6  50DF               	movf	223,w,c
  5601   002CE8  0B07               	andlw	7
  5602   002CEA  6E12               	movwf	(??_gpio_pin_direction_intialize+3)^0,c
  5603   002CEC  5012               	movf	(??_gpio_pin_direction_intialize+3)^0,w,c
  5604   002CEE  0D02               	mullw	2
  5605   002CF0  0E94               	movlw	low _tris_reg
  5606   002CF2  24F3               	addwf	243,w,c
  5607   002CF4  6ED9               	movwf	fsr2l,c
  5608   002CF6  0E00               	movlw	high _tris_reg
  5609   002CF8  20F4               	addwfc	prodh,w,c
  5610   002CFA  6EDA               	movwf	fsr2h,c
  5611   002CFC  CFDE F013          	movff	postinc2,??_gpio_pin_direction_intialize+4
  5612   002D00  CFDD F014          	movff	postdec2,??_gpio_pin_direction_intialize+5
  5613   002D04  C013  FFD9         	movff	??_gpio_pin_direction_intialize+4,fsr2l
  5614   002D08  C014  FFDA         	movff	??_gpio_pin_direction_intialize+5,fsr2h
  5615   002D0C  5011               	movf	(??_gpio_pin_direction_intialize+2)^0,w,c
  5616   002D0E  16DF               	andwf	indf2,f,c
  5617   002D10  EFBE  F016         	goto	l449
  5618   002D14                     l3545:
  5619   002D14  C00D  FFD9         	movff	gpio_pin_direction_intialize@Pin_Config,fsr2l
  5620   002D18  C00E  FFDA         	movff	gpio_pin_direction_intialize@Pin_Config+1,fsr2h
  5621   002D1C  30DF               	rrcf	223,w,c
  5622   002D1E  32E8               	rrcf	wreg,f,c
  5623   002D20  32E8               	rrcf	wreg,f,c
  5624   002D22  0B07               	andlw	7
  5625   002D24  6E0F               	movwf	??_gpio_pin_direction_intialize^0,c
  5626   002D26  0E01               	movlw	1
  5627   002D28  6E10               	movwf	(??_gpio_pin_direction_intialize+1)^0,c
  5628   002D2A  2A0F               	incf	??_gpio_pin_direction_intialize^0,f,c
  5629   002D2C  EF9A  F016         	goto	u3224
  5630   002D30                     u3225:
  5631   002D30  90D8               	bcf	status,0,c
  5632   002D32  3610               	rlcf	(??_gpio_pin_direction_intialize+1)^0,f,c
  5633   002D34                     u3224:
  5634   002D34  2E0F               	decfsz	??_gpio_pin_direction_intialize^0,f,c
  5635   002D36  EF98  F016         	goto	u3225
  5636   002D3A  C00D  FFD9         	movff	gpio_pin_direction_intialize@Pin_Config,fsr2l
  5637   002D3E  C00E  FFDA         	movff	gpio_pin_direction_intialize@Pin_Config+1,fsr2h
  5638   002D42  50DF               	movf	223,w,c
  5639   002D44  0B07               	andlw	7
  5640   002D46  6E11               	movwf	(??_gpio_pin_direction_intialize+2)^0,c
  5641   002D48  5011               	movf	(??_gpio_pin_direction_intialize+2)^0,w,c
  5642   002D4A  0D02               	mullw	2
  5643   002D4C  0E94               	movlw	low _tris_reg
  5644   002D4E  24F3               	addwf	243,w,c
  5645   002D50  6ED9               	movwf	fsr2l,c
  5646   002D52  0E00               	movlw	high _tris_reg
  5647   002D54  20F4               	addwfc	prodh,w,c
  5648   002D56  6EDA               	movwf	fsr2h,c
  5649   002D58  CFDE F012          	movff	postinc2,??_gpio_pin_direction_intialize+3
  5650   002D5C  CFDD F013          	movff	postdec2,??_gpio_pin_direction_intialize+4
  5651   002D60  C012  FFD9         	movff	??_gpio_pin_direction_intialize+3,fsr2l
  5652   002D64  C013  FFDA         	movff	??_gpio_pin_direction_intialize+4,fsr2h
  5653   002D68  5010               	movf	(??_gpio_pin_direction_intialize+1)^0,w,c
  5654   002D6A  12DF               	iorwf	indf2,f,c
  5655   002D6C  50DF               	movf	indf2,w,c
  5656   002D6E  B4D8               	btfsc	status,2,c
  5657   002D70  EFBC  F016         	goto	u3231
  5658   002D74  EFBE  F016         	goto	u3230
  5659   002D78                     u3231:
  5660   002D78  EF4A  F016         	goto	l3539
  5661   002D7C                     u3230:
  5662   002D7C                     l449:
  5663                           
  5664                           ;MCAL_layer/GPIO/gpio.c: 43:         return ret;
  5665   002D7C  5015               	movf	gpio_pin_direction_intialize@ret^0,w,c
  5666   002D7E  0012               	return		;funcret
  5667   002D80                     __end_of_gpio_pin_direction_intialize:
  5668                           	callstack 0
  5669                           
  5670 ;; *************** function _CCP_PWM_Set_Duty *****************
  5671 ;; Defined at:
  5672 ;;		line 175 in file "MCAL_layer/CCP/ccp.c"
  5673 ;; Parameters:    Size  Location     Type
  5674 ;;  ccp_obj         2    0[BANK0 ] PTR struct .
  5675 ;;		 -> ccp_pwm_obj(13), 
  5676 ;;  duty            1    2[BANK0 ] unsigned char 
  5677 ;; Auto vars:     Size  Location     Type
  5678 ;;  val_reg         2   10[BANK0 ] unsigned short 
  5679 ;;  ret             1    5[BANK0 ] unsigned char 
  5680 ;; Return value:  Size  Location     Type
  5681 ;;                  1    wreg      unsigned char 
  5682 ;; Registers used:
  5683 ;;		wreg, fsr2l, fsr2h, status,2, status,0, prodl, prodh, cstack
  5684 ;; Tracked objects:
  5685 ;;		On entry : 0/0
  5686 ;;		On exit  : 0/0
  5687 ;;		Unchanged: 0/0
  5688 ;; Data sizes:     COMRAM   BANK0   BANK1   BANK2   BANK3   BANK4   BANK5   BANK6   BANK7   BANK8   BANK9  BANK10  BANK1
      +1  BANK12  BANK13  BANK14  BANK15
  5689 ;;      Params:         0       3       0       0       0       0       0       0       0       0       0       0       
      +0       0       0       0       0
  5690 ;;      Locals:         0       7       0       0       0       0       0       0       0       0       0       0       
      +0       0       0       0       0
  5691 ;;      Temps:          0       2       0       0       0       0       0       0       0       0       0       0       
      +0       0       0       0       0
  5692 ;;      Totals:         0      12       0       0       0       0       0       0       0       0       0       0       
      +0       0       0       0       0
  5693 ;;Total ram usage:       12 bytes
  5694 ;; Hardware stack levels used: 1
  5695 ;; Hardware stack levels required when called: 5
  5696 ;; This function calls:
  5697 ;;		___fladd
  5698 ;;		___fldiv
  5699 ;;		___flmul
  5700 ;;		___fltol
  5701 ;;		___xxtofl
  5702 ;; This function is called by:
  5703 ;;		_main
  5704 ;; This function uses a non-reentrant model
  5705 ;;
  5706                           
  5707                           	psect	text36
  5708   002020                     __ptext36:
  5709                           	callstack 0
  5710   002020                     _CCP_PWM_Set_Duty:
  5711                           	callstack 25
  5712   002020                     
  5713                           ;MCAL_layer/CCP/ccp.c: 176:          Std_ReturnType ret = (Std_ReturnType)0x01;
  5714   002020  0E01               	movlw	1
  5715   002022  0100               	movlb	0	; () banked
  5716   002024  6FE7               	movwf	CCP_PWM_Set_Duty@ret& (0+255),b
  5717   002026                     
  5718                           ; BSR set to: 0
  5719                           ;MCAL_layer/CCP/ccp.c: 177:        uint16 val_reg;;MCAL_layer/CCP/ccp.c: 178:     if(((v
      +                          oid*)0) == ccp_obj)
  5720   002026  51E2               	movf	CCP_PWM_Set_Duty@ccp_obj& (0+255),w,b
  5721   002028  11E3               	iorwf	(CCP_PWM_Set_Duty@ccp_obj+1)& (0+255),w,b
  5722   00202A  A4D8               	btfss	status,2,c
  5723   00202C  EF1A  F010         	goto	u6491
  5724   002030  EF1C  F010         	goto	u6490
  5725   002034                     u6491:
  5726   002034  EF20  F010         	goto	l5701
  5727   002038                     u6490:
  5728   002038                     
  5729                           ; BSR set to: 0
  5730                           ;MCAL_layer/CCP/ccp.c: 179:         ret = (Std_ReturnType)0x00;
  5731   002038  0E00               	movlw	0
  5732   00203A  6FE7               	movwf	CCP_PWM_Set_Duty@ret& (0+255),b
  5733   00203C  EF4C  F011         	goto	l5717
  5734   002040                     l5701:
  5735                           
  5736                           ; BSR set to: 0
  5737                           ;MCAL_layer/CCP/ccp.c: 181:     {;MCAL_layer/CCP/ccp.c: 182:         if(ccp_obj->ccp_mod
      +                          e == 0x00)
  5738   002040  EE20 F00B          	lfsr	2,11
  5739   002044  51E2               	movf	CCP_PWM_Set_Duty@ccp_obj& (0+255),w,b
  5740   002046  26D9               	addwf	fsr2l,f,c
  5741   002048  51E3               	movf	(CCP_PWM_Set_Duty@ccp_obj+1)& (0+255),w,b
  5742   00204A  22DA               	addwfc	fsr2h,f,c
  5743   00204C  50DF               	movf	indf2,w,c
  5744   00204E  A4D8               	btfss	status,2,c
  5745   002050  EF2C  F010         	goto	u6501
  5746   002054  EF2E  F010         	goto	u6500
  5747   002058                     u6501:
  5748   002058  EFB6  F010         	goto	l5709
  5749   00205C                     u6500:
  5750   00205C                     
  5751                           ; BSR set to: 0
  5752                           ;MCAL_layer/CCP/ccp.c: 183:         {;MCAL_layer/CCP/ccp.c: 184:             val_reg = (
      +                          uint16)((float)4 * ((float)PR2 + 1.0) * ((float)duty / 100.0));
  5753   00205C  0E00               	movlw	0
  5754   00205E  6E1F               	movwf	___flmul@a^0,c
  5755   002060  0E00               	movlw	0
  5756   002062  6E20               	movwf	(___flmul@a+1)^0,c
  5757   002064  0E80               	movlw	128
  5758   002066  6E21               	movwf	(___flmul@a+2)^0,c
  5759   002068  0E40               	movlw	64
  5760   00206A  6E22               	movwf	(___flmul@a+3)^0,c
  5761   00206C  0E00               	movlw	0
  5762   00206E  6E51               	movwf	___fladd@a^0,c
  5763   002070  0E00               	movlw	0
  5764   002072  6E52               	movwf	(___fladd@a+1)^0,c
  5765   002074  0E80               	movlw	128
  5766   002076  6E53               	movwf	(___fladd@a+2)^0,c
  5767   002078  0E3F               	movlw	63
  5768   00207A  6E54               	movwf	(___fladd@a+3)^0,c
  5769   00207C  50CB               	movf	203,w,c	;volatile
  5770   00207E  6E0D               	movwf	___xxtofl@val^0,c
  5771   002080  6A0E               	clrf	(___xxtofl@val+1)^0,c
  5772   002082  6A0F               	clrf	(___xxtofl@val+2)^0,c
  5773   002084  6A10               	clrf	(___xxtofl@val+3)^0,c
  5774   002086  0E00               	movlw	0
  5775   002088  EC4E  F011         	call	___xxtofl
  5776   00208C  C00D  F04D         	movff	?___xxtofl,___fladd@b
  5777   002090  C00E  F04E         	movff	?___xxtofl+1,___fladd@b+1
  5778   002094  C00F  F04F         	movff	?___xxtofl+2,___fladd@b+2
  5779   002098  C010  F050         	movff	?___xxtofl+3,___fladd@b+3
  5780   00209C  EC39  F008         	call	___fladd	;wreg free
  5781   0020A0  C04D  F01B         	movff	?___fladd,___flmul@b
  5782   0020A4  C04E  F01C         	movff	?___fladd+1,___flmul@b+1
  5783   0020A8  C04F  F01D         	movff	?___fladd+2,___flmul@b+2
  5784   0020AC  C050  F01E         	movff	?___fladd+3,___flmul@b+3
  5785   0020B0  EC99  F00A         	call	___flmul	;wreg free
  5786   0020B4  C01B  F0E8         	movff	?___flmul,_CCP_PWM_Set_Duty$2627
  5787   0020B8  C01C  F0E9         	movff	?___flmul+1,_CCP_PWM_Set_Duty$2627+1
  5788   0020BC  C01D  F0EA         	movff	?___flmul+2,_CCP_PWM_Set_Duty$2627+2
  5789   0020C0  C01E  F0EB         	movff	?___flmul+3,_CCP_PWM_Set_Duty$2627+3
  5790                           
  5791                           ;MCAL_layer/CCP/ccp.c: 183:         {;MCAL_layer/CCP/ccp.c: 184:             val_reg = (
      +                          uint16)((float)4 * ((float)PR2 + 1.0) * ((float)duty / 100.0));
  5792   0020C4  0E00               	movlw	0
  5793   0020C6  6E38               	movwf	___fldiv@a^0,c
  5794   0020C8  0E00               	movlw	0
  5795   0020CA  6E39               	movwf	(___fldiv@a+1)^0,c
  5796   0020CC  0EC8               	movlw	200
  5797   0020CE  6E3A               	movwf	(___fldiv@a+2)^0,c
  5798   0020D0  0E42               	movlw	66
  5799   0020D2  6E3B               	movwf	(___fldiv@a+3)^0,c
  5800   0020D4  0100               	movlb	0	; () banked
  5801   0020D6  51E4               	movf	CCP_PWM_Set_Duty@duty& (0+255),w,b
  5802   0020D8  6E0D               	movwf	___xxtofl@val^0,c
  5803   0020DA  6A0E               	clrf	(___xxtofl@val+1)^0,c
  5804   0020DC  6A0F               	clrf	(___xxtofl@val+2)^0,c
  5805   0020DE  6A10               	clrf	(___xxtofl@val+3)^0,c
  5806   0020E0  0E00               	movlw	0
  5807   0020E2  EC4E  F011         	call	___xxtofl
  5808   0020E6  C00D  F034         	movff	?___xxtofl,___fldiv@b
  5809   0020EA  C00E  F035         	movff	?___xxtofl+1,___fldiv@b+1
  5810   0020EE  C00F  F036         	movff	?___xxtofl+2,___fldiv@b+2
  5811   0020F2  C010  F037         	movff	?___xxtofl+3,___fldiv@b+3
  5812   0020F6  ECAE  F00C         	call	___fldiv	;wreg free
  5813   0020FA  C034  F01F         	movff	?___fldiv,___flmul@a
  5814   0020FE  C035  F020         	movff	?___fldiv+1,___flmul@a+1
  5815   002102  C036  F021         	movff	?___fldiv+2,___flmul@a+2
  5816   002106  C037  F022         	movff	?___fldiv+3,___flmul@a+3
  5817   00210A  C0E8  F01B         	movff	_CCP_PWM_Set_Duty$2627,___flmul@b
  5818   00210E  C0E9  F01C         	movff	_CCP_PWM_Set_Duty$2627+1,___flmul@b+1
  5819   002112  C0EA  F01D         	movff	_CCP_PWM_Set_Duty$2627+2,___flmul@b+2
  5820   002116  C0EB  F01E         	movff	_CCP_PWM_Set_Duty$2627+3,___flmul@b+3
  5821   00211A  EC99  F00A         	call	___flmul	;wreg free
  5822   00211E  C01B  F05D         	movff	?___flmul,___fltol@f1
  5823   002122  C01C  F05E         	movff	?___flmul+1,___fltol@f1+1
  5824   002126  C01D  F05F         	movff	?___flmul+2,___fltol@f1+2
  5825   00212A  C01E  F060         	movff	?___flmul+3,___fltol@f1+3
  5826   00212E  ECDF  F017         	call	___fltol	;wreg free
  5827   002132  C05D  F0EC         	movff	?___fltol,CCP_PWM_Set_Duty@val_reg
  5828   002136  C05E  F0ED         	movff	?___fltol+1,CCP_PWM_Set_Duty@val_reg+1
  5829   00213A                     
  5830                           ;MCAL_layer/CCP/ccp.c: 185:             CCP1CONbits.DC1B = (val_reg & 0x0003);
  5831   00213A  C0EC  F0E5         	movff	CCP_PWM_Set_Duty@val_reg,??_CCP_PWM_Set_Duty
  5832   00213E  0E03               	movlw	3
  5833   002140  0100               	movlb	0	; () banked
  5834   002142  17E5               	andwf	??_CCP_PWM_Set_Duty& (0+255),f,b
  5835   002144  3BE5               	swapf	??_CCP_PWM_Set_Duty& (0+255),f,b
  5836   002146  50BD               	movf	189,w,c	;volatile
  5837   002148  19E5               	xorwf	??_CCP_PWM_Set_Duty& (0+255),w,b
  5838   00214A  0BCF               	andlw	-49
  5839   00214C  19E5               	xorwf	??_CCP_PWM_Set_Duty& (0+255),w,b
  5840   00214E  6EBD               	movwf	189,c	;volatile
  5841   002150                     
  5842                           ; BSR set to: 0
  5843                           ;MCAL_layer/CCP/ccp.c: 186:             CCPR1L = (uint8)(val_reg >> 2);
  5844   002150  C0EC  F0E5         	movff	CCP_PWM_Set_Duty@val_reg,??_CCP_PWM_Set_Duty
  5845   002154  C0ED  F0E6         	movff	CCP_PWM_Set_Duty@val_reg+1,??_CCP_PWM_Set_Duty+1
  5846   002158  90D8               	bcf	status,0,c
  5847   00215A  33E6               	rrcf	(??_CCP_PWM_Set_Duty+1)& (0+255),f,b
  5848   00215C  33E5               	rrcf	??_CCP_PWM_Set_Duty& (0+255),f,b
  5849   00215E  90D8               	bcf	status,0,c
  5850   002160  33E6               	rrcf	(??_CCP_PWM_Set_Duty+1)& (0+255),f,b
  5851   002162  33E5               	rrcf	??_CCP_PWM_Set_Duty& (0+255),f,b
  5852   002164  51E5               	movf	??_CCP_PWM_Set_Duty& (0+255),w,b
  5853   002166  6EBE               	movwf	190,c	;volatile
  5854                           
  5855                           ;MCAL_layer/CCP/ccp.c: 187:         }
  5856   002168  EF4C  F011         	goto	l5717
  5857   00216C                     l5709:
  5858                           
  5859                           ; BSR set to: 0
  5860   00216C  EE20 F00B          	lfsr	2,11
  5861   002170  51E2               	movf	CCP_PWM_Set_Duty@ccp_obj& (0+255),w,b
  5862   002172  26D9               	addwf	fsr2l,f,c
  5863   002174  51E3               	movf	(CCP_PWM_Set_Duty@ccp_obj+1)& (0+255),w,b
  5864   002176  22DA               	addwfc	fsr2h,f,c
  5865   002178  04DE               	decf	postinc2,w,c
  5866   00217A  A4D8               	btfss	status,2,c
  5867   00217C  EFC2  F010         	goto	u6511
  5868   002180  EFC4  F010         	goto	u6510
  5869   002184                     u6511:
  5870   002184  EF4C  F011         	goto	l381
  5871   002188                     u6510:
  5872   002188                     
  5873                           ; BSR set to: 0
  5874                           ;MCAL_layer/CCP/ccp.c: 190:         {;MCAL_layer/CCP/ccp.c: 191:             val_reg = (
      +                          uint16)((float)4 * ((float)PR2 + 1.0) * ((float)duty / 100.0));
  5875   002188  0E00               	movlw	0
  5876   00218A  6E1F               	movwf	___flmul@a^0,c
  5877   00218C  0E00               	movlw	0
  5878   00218E  6E20               	movwf	(___flmul@a+1)^0,c
  5879   002190  0E80               	movlw	128
  5880   002192  6E21               	movwf	(___flmul@a+2)^0,c
  5881   002194  0E40               	movlw	64
  5882   002196  6E22               	movwf	(___flmul@a+3)^0,c
  5883   002198  0E00               	movlw	0
  5884   00219A  6E51               	movwf	___fladd@a^0,c
  5885   00219C  0E00               	movlw	0
  5886   00219E  6E52               	movwf	(___fladd@a+1)^0,c
  5887   0021A0  0E80               	movlw	128
  5888   0021A2  6E53               	movwf	(___fladd@a+2)^0,c
  5889   0021A4  0E3F               	movlw	63
  5890   0021A6  6E54               	movwf	(___fladd@a+3)^0,c
  5891   0021A8  50CB               	movf	203,w,c	;volatile
  5892   0021AA  6E0D               	movwf	___xxtofl@val^0,c
  5893   0021AC  6A0E               	clrf	(___xxtofl@val+1)^0,c
  5894   0021AE  6A0F               	clrf	(___xxtofl@val+2)^0,c
  5895   0021B0  6A10               	clrf	(___xxtofl@val+3)^0,c
  5896   0021B2  0E00               	movlw	0
  5897   0021B4  EC4E  F011         	call	___xxtofl
  5898   0021B8  C00D  F04D         	movff	?___xxtofl,___fladd@b
  5899   0021BC  C00E  F04E         	movff	?___xxtofl+1,___fladd@b+1
  5900   0021C0  C00F  F04F         	movff	?___xxtofl+2,___fladd@b+2
  5901   0021C4  C010  F050         	movff	?___xxtofl+3,___fladd@b+3
  5902   0021C8  EC39  F008         	call	___fladd	;wreg free
  5903   0021CC  C04D  F01B         	movff	?___fladd,___flmul@b
  5904   0021D0  C04E  F01C         	movff	?___fladd+1,___flmul@b+1
  5905   0021D4  C04F  F01D         	movff	?___fladd+2,___flmul@b+2
  5906   0021D8  C050  F01E         	movff	?___fladd+3,___flmul@b+3
  5907   0021DC  EC99  F00A         	call	___flmul	;wreg free
  5908   0021E0  C01B  F0E8         	movff	?___flmul,_CCP_PWM_Set_Duty$2627
  5909   0021E4  C01C  F0E9         	movff	?___flmul+1,_CCP_PWM_Set_Duty$2627+1
  5910   0021E8  C01D  F0EA         	movff	?___flmul+2,_CCP_PWM_Set_Duty$2627+2
  5911   0021EC  C01E  F0EB         	movff	?___flmul+3,_CCP_PWM_Set_Duty$2627+3
  5912                           
  5913                           ;MCAL_layer/CCP/ccp.c: 190:         {;MCAL_layer/CCP/ccp.c: 191:             val_reg = (
      +                          uint16)((float)4 * ((float)PR2 + 1.0) * ((float)duty / 100.0));
  5914   0021F0  0E00               	movlw	0
  5915   0021F2  6E38               	movwf	___fldiv@a^0,c
  5916   0021F4  0E00               	movlw	0
  5917   0021F6  6E39               	movwf	(___fldiv@a+1)^0,c
  5918   0021F8  0EC8               	movlw	200
  5919   0021FA  6E3A               	movwf	(___fldiv@a+2)^0,c
  5920   0021FC  0E42               	movlw	66
  5921   0021FE  6E3B               	movwf	(___fldiv@a+3)^0,c
  5922   002200  0100               	movlb	0	; () banked
  5923   002202  51E4               	movf	CCP_PWM_Set_Duty@duty& (0+255),w,b
  5924   002204  6E0D               	movwf	___xxtofl@val^0,c
  5925   002206  6A0E               	clrf	(___xxtofl@val+1)^0,c
  5926   002208  6A0F               	clrf	(___xxtofl@val+2)^0,c
  5927   00220A  6A10               	clrf	(___xxtofl@val+3)^0,c
  5928   00220C  0E00               	movlw	0
  5929   00220E  EC4E  F011         	call	___xxtofl
  5930   002212  C00D  F034         	movff	?___xxtofl,___fldiv@b
  5931   002216  C00E  F035         	movff	?___xxtofl+1,___fldiv@b+1
  5932   00221A  C00F  F036         	movff	?___xxtofl+2,___fldiv@b+2
  5933   00221E  C010  F037         	movff	?___xxtofl+3,___fldiv@b+3
  5934   002222  ECAE  F00C         	call	___fldiv	;wreg free
  5935   002226  C034  F01F         	movff	?___fldiv,___flmul@a
  5936   00222A  C035  F020         	movff	?___fldiv+1,___flmul@a+1
  5937   00222E  C036  F021         	movff	?___fldiv+2,___flmul@a+2
  5938   002232  C037  F022         	movff	?___fldiv+3,___flmul@a+3
  5939   002236  C0E8  F01B         	movff	_CCP_PWM_Set_Duty$2627,___flmul@b
  5940   00223A  C0E9  F01C         	movff	_CCP_PWM_Set_Duty$2627+1,___flmul@b+1
  5941   00223E  C0EA  F01D         	movff	_CCP_PWM_Set_Duty$2627+2,___flmul@b+2
  5942   002242  C0EB  F01E         	movff	_CCP_PWM_Set_Duty$2627+3,___flmul@b+3
  5943   002246  EC99  F00A         	call	___flmul	;wreg free
  5944   00224A  C01B  F05D         	movff	?___flmul,___fltol@f1
  5945   00224E  C01C  F05E         	movff	?___flmul+1,___fltol@f1+1
  5946   002252  C01D  F05F         	movff	?___flmul+2,___fltol@f1+2
  5947   002256  C01E  F060         	movff	?___flmul+3,___fltol@f1+3
  5948   00225A  ECDF  F017         	call	___fltol	;wreg free
  5949   00225E  C05D  F0EC         	movff	?___fltol,CCP_PWM_Set_Duty@val_reg
  5950   002262  C05E  F0ED         	movff	?___fltol+1,CCP_PWM_Set_Duty@val_reg+1
  5951   002266                     
  5952                           ;MCAL_layer/CCP/ccp.c: 192:             CCP2CONbits.DC2B = (val_reg & 0x0003);
  5953   002266  C0EC  F0E5         	movff	CCP_PWM_Set_Duty@val_reg,??_CCP_PWM_Set_Duty
  5954   00226A  0E03               	movlw	3
  5955   00226C  0100               	movlb	0	; () banked
  5956   00226E  17E5               	andwf	??_CCP_PWM_Set_Duty& (0+255),f,b
  5957   002270  3BE5               	swapf	??_CCP_PWM_Set_Duty& (0+255),f,b
  5958   002272  50BA               	movf	186,w,c	;volatile
  5959   002274  19E5               	xorwf	??_CCP_PWM_Set_Duty& (0+255),w,b
  5960   002276  0BCF               	andlw	-49
  5961   002278  19E5               	xorwf	??_CCP_PWM_Set_Duty& (0+255),w,b
  5962   00227A  6EBA               	movwf	186,c	;volatile
  5963   00227C                     
  5964                           ; BSR set to: 0
  5965                           ;MCAL_layer/CCP/ccp.c: 193:             CCPR2L = (uint8)(val_reg >> 2);
  5966   00227C  C0EC  F0E5         	movff	CCP_PWM_Set_Duty@val_reg,??_CCP_PWM_Set_Duty
  5967   002280  C0ED  F0E6         	movff	CCP_PWM_Set_Duty@val_reg+1,??_CCP_PWM_Set_Duty+1
  5968   002284  90D8               	bcf	status,0,c
  5969   002286  33E6               	rrcf	(??_CCP_PWM_Set_Duty+1)& (0+255),f,b
  5970   002288  33E5               	rrcf	??_CCP_PWM_Set_Duty& (0+255),f,b
  5971   00228A  90D8               	bcf	status,0,c
  5972   00228C  33E6               	rrcf	(??_CCP_PWM_Set_Duty+1)& (0+255),f,b
  5973   00228E  33E5               	rrcf	??_CCP_PWM_Set_Duty& (0+255),f,b
  5974   002290  51E5               	movf	??_CCP_PWM_Set_Duty& (0+255),w,b
  5975   002292  6EBB               	movwf	187,c	;volatile
  5976                           
  5977                           ;MCAL_layer/CCP/ccp.c: 194:         }
  5978   002294  EF4C  F011         	goto	l5717
  5979   002298                     l381:
  5980   002298                     l5717:
  5981                           
  5982                           ; BSR set to: 0
  5983                           ;MCAL_layer/CCP/ccp.c: 199:     return ret;
  5984   002298  51E7               	movf	CCP_PWM_Set_Duty@ret& (0+255),w,b
  5985   00229A                     
  5986                           ; BSR set to: 0
  5987   00229A  0012               	return		;funcret
  5988   00229C                     __end_of_CCP_PWM_Set_Duty:
  5989                           	callstack 0
  5990                           
  5991 ;; *************** function ___xxtofl *****************
  5992 ;; Defined at:
  5993 ;;		line 10 in file "C:\Program Files\Microchip\xc8\v2.41\pic\sources\c99\common\xxtofl.c"
  5994 ;; Parameters:    Size  Location     Type
  5995 ;;  sign            1    wreg     unsigned char 
  5996 ;;  val             4   12[COMRAM] long 
  5997 ;; Auto vars:     Size  Location     Type
  5998 ;;  sign            1   20[COMRAM] unsigned char 
  5999 ;;  arg             4   22[COMRAM] unsigned long 
  6000 ;;  exp             1   21[COMRAM] unsigned char 
  6001 ;; Return value:  Size  Location     Type
  6002 ;;                  4   12[COMRAM] unsigned char 
  6003 ;; Registers used:
  6004 ;;		wreg, status,2, status,0
  6005 ;; Tracked objects:
  6006 ;;		On entry : 0/0
  6007 ;;		On exit  : 0/0
  6008 ;;		Unchanged: 0/0
  6009 ;; Data sizes:     COMRAM   BANK0   BANK1   BANK2   BANK3   BANK4   BANK5   BANK6   BANK7   BANK8   BANK9  BANK10  BANK1
      +1  BANK12  BANK13  BANK14  BANK15
  6010 ;;      Params:         4       0       0       0       0       0       0       0       0       0       0       0       
      +0       0       0       0       0
  6011 ;;      Locals:         6       0       0       0       0       0       0       0       0       0       0       0       
      +0       0       0       0       0
  6012 ;;      Temps:          4       0       0       0       0       0       0       0       0       0       0       0       
      +0       0       0       0       0
  6013 ;;      Totals:        14       0       0       0       0       0       0       0       0       0       0       0       
      +0       0       0       0       0
  6014 ;;Total ram usage:       14 bytes
  6015 ;; Hardware stack levels used: 1
  6016 ;; Hardware stack levels required when called: 4
  6017 ;; This function calls:
  6018 ;;		Nothing
  6019 ;; This function is called by:
  6020 ;;		_set_pwm_period
  6021 ;;		_CCP_PWM_Set_Duty
  6022 ;;		_main
  6023 ;; This function uses a non-reentrant model
  6024 ;;
  6025                           
  6026                           	psect	text37
  6027   00229C                     __ptext37:
  6028                           	callstack 0
  6029   00229C                     ___xxtofl:
  6030                           	callstack 23
  6031                           
  6032                           ; BSR set to: 0
  6033                           ;incstack = 0
  6034                           ;___xxtofl@sign stored from wreg
  6035   00229C  6E15               	movwf	___xxtofl@sign^0,c
  6036   00229E  5015               	movf	___xxtofl@sign^0,w,c
  6037   0022A0  B4D8               	btfsc	status,2,c
  6038   0022A2  EF55  F011         	goto	u6311
  6039   0022A6  EF57  F011         	goto	u6310
  6040   0022AA                     u6311:
  6041   0022AA  EF79  F011         	goto	l1316
  6042   0022AE                     u6310:
  6043   0022AE  BE10               	btfsc	(___xxtofl@val+3)^0,7,c
  6044   0022B0  EF5E  F011         	goto	u6320
  6045   0022B4  EF5C  F011         	goto	u6321
  6046   0022B8                     u6321:
  6047   0022B8  EF79  F011         	goto	l1316
  6048   0022BC                     u6320:
  6049   0022BC  C00D  F011         	movff	___xxtofl@val,??___xxtofl
  6050   0022C0  C00E  F012         	movff	___xxtofl@val+1,??___xxtofl+1
  6051   0022C4  C00F  F013         	movff	___xxtofl@val+2,??___xxtofl+2
  6052   0022C8  C010  F014         	movff	___xxtofl@val+3,??___xxtofl+3
  6053   0022CC  1E11               	comf	??___xxtofl^0,f,c
  6054   0022CE  1E12               	comf	(??___xxtofl+1)^0,f,c
  6055   0022D0  1E13               	comf	(??___xxtofl+2)^0,f,c
  6056   0022D2  1E14               	comf	(??___xxtofl+3)^0,f,c
  6057   0022D4  2A11               	incf	??___xxtofl^0,f,c
  6058   0022D6  0E00               	movlw	0
  6059   0022D8  2212               	addwfc	(??___xxtofl+1)^0,f,c
  6060   0022DA  2213               	addwfc	(??___xxtofl+2)^0,f,c
  6061   0022DC  2214               	addwfc	(??___xxtofl+3)^0,f,c
  6062   0022DE  C011  F017         	movff	??___xxtofl,___xxtofl@arg
  6063   0022E2  C012  F018         	movff	??___xxtofl+1,___xxtofl@arg+1
  6064   0022E6  C013  F019         	movff	??___xxtofl+2,___xxtofl@arg+2
  6065   0022EA  C014  F01A         	movff	??___xxtofl+3,___xxtofl@arg+3
  6066   0022EE  EF81  F011         	goto	l5607
  6067   0022F2                     l1316:
  6068   0022F2  C00D  F017         	movff	___xxtofl@val,___xxtofl@arg
  6069   0022F6  C00E  F018         	movff	___xxtofl@val+1,___xxtofl@arg+1
  6070   0022FA  C00F  F019         	movff	___xxtofl@val+2,___xxtofl@arg+2
  6071   0022FE  C010  F01A         	movff	___xxtofl@val+3,___xxtofl@arg+3
  6072   002302                     l5607:
  6073   002302  500D               	movf	___xxtofl@val^0,w,c
  6074   002304  100E               	iorwf	(___xxtofl@val+1)^0,w,c
  6075   002306  100F               	iorwf	(___xxtofl@val+2)^0,w,c
  6076   002308  1010               	iorwf	(___xxtofl@val+3)^0,w,c
  6077   00230A  A4D8               	btfss	status,2,c
  6078   00230C  EF8A  F011         	goto	u6331
  6079   002310  EF8C  F011         	goto	u6330
  6080   002314                     u6331:
  6081   002314  EF96  F011         	goto	l5613
  6082   002318                     u6330:
  6083   002318  0E00               	movlw	0
  6084   00231A  6E0D               	movwf	?___xxtofl^0,c
  6085   00231C  0E00               	movlw	0
  6086   00231E  6E0E               	movwf	(?___xxtofl+1)^0,c
  6087   002320  0E00               	movlw	0
  6088   002322  6E0F               	movwf	(?___xxtofl+2)^0,c
  6089   002324  0E00               	movlw	0
  6090   002326  6E10               	movwf	(?___xxtofl+3)^0,c
  6091   002328  EF27  F012         	goto	l1319
  6092   00232C                     l5613:
  6093   00232C  0E96               	movlw	150
  6094   00232E  6E16               	movwf	___xxtofl@exp^0,c
  6095   002330  EFA0  F011         	goto	l5617
  6096   002334                     l5615:
  6097   002334  2A16               	incf	___xxtofl@exp^0,f,c
  6098   002336  90D8               	bcf	status,0,c
  6099   002338  321A               	rrcf	(___xxtofl@arg+3)^0,f,c
  6100   00233A  3219               	rrcf	(___xxtofl@arg+2)^0,f,c
  6101   00233C  3218               	rrcf	(___xxtofl@arg+1)^0,f,c
  6102   00233E  3217               	rrcf	___xxtofl@arg^0,f,c
  6103   002340                     l5617:
  6104   002340  0E00               	movlw	0
  6105   002342  1417               	andwf	___xxtofl@arg^0,w,c
  6106   002344  6E11               	movwf	??___xxtofl^0,c
  6107   002346  0E00               	movlw	0
  6108   002348  1418               	andwf	(___xxtofl@arg+1)^0,w,c
  6109   00234A  6E12               	movwf	(??___xxtofl+1)^0,c
  6110   00234C  0E00               	movlw	0
  6111   00234E  1419               	andwf	(___xxtofl@arg+2)^0,w,c
  6112   002350  6E13               	movwf	(??___xxtofl+2)^0,c
  6113   002352  0EFE               	movlw	254
  6114   002354  141A               	andwf	(___xxtofl@arg+3)^0,w,c
  6115   002356  6E14               	movwf	(??___xxtofl+3)^0,c
  6116   002358  5011               	movf	??___xxtofl^0,w,c
  6117   00235A  1012               	iorwf	(??___xxtofl+1)^0,w,c
  6118   00235C  1013               	iorwf	(??___xxtofl+2)^0,w,c
  6119   00235E  1014               	iorwf	(??___xxtofl+3)^0,w,c
  6120   002360  A4D8               	btfss	status,2,c
  6121   002362  EFB5  F011         	goto	u6341
  6122   002366  EFB7  F011         	goto	u6340
  6123   00236A                     u6341:
  6124   00236A  EF9A  F011         	goto	l5615
  6125   00236E                     u6340:
  6126   00236E  EFC5  F011         	goto	l1323
  6127   002372                     l5619:
  6128   002372  2A16               	incf	___xxtofl@exp^0,f,c
  6129   002374  0E01               	movlw	1
  6130   002376  2617               	addwf	___xxtofl@arg^0,f,c
  6131   002378  0E00               	movlw	0
  6132   00237A  2218               	addwfc	(___xxtofl@arg+1)^0,f,c
  6133   00237C  2219               	addwfc	(___xxtofl@arg+2)^0,f,c
  6134   00237E  221A               	addwfc	(___xxtofl@arg+3)^0,f,c
  6135   002380  90D8               	bcf	status,0,c
  6136   002382  321A               	rrcf	(___xxtofl@arg+3)^0,f,c
  6137   002384  3219               	rrcf	(___xxtofl@arg+2)^0,f,c
  6138   002386  3218               	rrcf	(___xxtofl@arg+1)^0,f,c
  6139   002388  3217               	rrcf	___xxtofl@arg^0,f,c
  6140   00238A                     l1323:
  6141   00238A  0E00               	movlw	0
  6142   00238C  1417               	andwf	___xxtofl@arg^0,w,c
  6143   00238E  6E11               	movwf	??___xxtofl^0,c
  6144   002390  0E00               	movlw	0
  6145   002392  1418               	andwf	(___xxtofl@arg+1)^0,w,c
  6146   002394  6E12               	movwf	(??___xxtofl+1)^0,c
  6147   002396  0E00               	movlw	0
  6148   002398  1419               	andwf	(___xxtofl@arg+2)^0,w,c
  6149   00239A  6E13               	movwf	(??___xxtofl+2)^0,c
  6150   00239C  0EFF               	movlw	255
  6151   00239E  141A               	andwf	(___xxtofl@arg+3)^0,w,c
  6152   0023A0  6E14               	movwf	(??___xxtofl+3)^0,c
  6153   0023A2  5011               	movf	??___xxtofl^0,w,c
  6154   0023A4  1012               	iorwf	(??___xxtofl+1)^0,w,c
  6155   0023A6  1013               	iorwf	(??___xxtofl+2)^0,w,c
  6156   0023A8  1014               	iorwf	(??___xxtofl+3)^0,w,c
  6157   0023AA  A4D8               	btfss	status,2,c
  6158   0023AC  EFDA  F011         	goto	u6351
  6159   0023B0  EFDC  F011         	goto	u6350
  6160   0023B4                     u6351:
  6161   0023B4  EFB9  F011         	goto	l5619
  6162   0023B8                     u6350:
  6163   0023B8  EFE4  F011         	goto	l5627
  6164   0023BC                     l5625:
  6165   0023BC  0616               	decf	___xxtofl@exp^0,f,c
  6166   0023BE  90D8               	bcf	status,0,c
  6167   0023C0  3617               	rlcf	___xxtofl@arg^0,f,c
  6168   0023C2  3618               	rlcf	(___xxtofl@arg+1)^0,f,c
  6169   0023C4  3619               	rlcf	(___xxtofl@arg+2)^0,f,c
  6170   0023C6  361A               	rlcf	(___xxtofl@arg+3)^0,f,c
  6171   0023C8                     l5627:
  6172   0023C8  BE19               	btfsc	(___xxtofl@arg+2)^0,7,c
  6173   0023CA  EFE9  F011         	goto	u6361
  6174   0023CE  EFEB  F011         	goto	u6360
  6175   0023D2                     u6361:
  6176   0023D2  EFF3  F011         	goto	l1330
  6177   0023D6                     u6360:
  6178   0023D6  0E02               	movlw	2
  6179   0023D8  6016               	cpfslt	___xxtofl@exp^0,c
  6180   0023DA  EFF1  F011         	goto	u6371
  6181   0023DE  EFF3  F011         	goto	u6370
  6182   0023E2                     u6371:
  6183   0023E2  EFDE  F011         	goto	l5625
  6184   0023E6                     u6370:
  6185   0023E6                     l1330:
  6186   0023E6  B016               	btfsc	___xxtofl@exp^0,0,c
  6187   0023E8  EFF8  F011         	goto	u6381
  6188   0023EC  EFFA  F011         	goto	u6380
  6189   0023F0                     u6381:
  6190   0023F0  EFFB  F011         	goto	l5633
  6191   0023F4                     u6380:
  6192   0023F4  9E19               	bcf	(___xxtofl@arg+2)^0,7,c
  6193   0023F6                     l5633:
  6194   0023F6  90D8               	bcf	status,0,c
  6195   0023F8  3216               	rrcf	___xxtofl@exp^0,f,c
  6196   0023FA  C016  F011         	movff	___xxtofl@exp,??___xxtofl
  6197   0023FE  6A12               	clrf	(??___xxtofl+1)^0,c
  6198   002400  6A13               	clrf	(??___xxtofl+2)^0,c
  6199   002402  6A14               	clrf	(??___xxtofl+3)^0,c
  6200   002404  C011  F014         	movff	??___xxtofl,??___xxtofl+3
  6201   002408  6A13               	clrf	(??___xxtofl+2)^0,c
  6202   00240A  6A12               	clrf	(??___xxtofl+1)^0,c
  6203   00240C  6A11               	clrf	??___xxtofl^0,c
  6204   00240E  5011               	movf	??___xxtofl^0,w,c
  6205   002410  1217               	iorwf	___xxtofl@arg^0,f,c
  6206   002412  5012               	movf	(??___xxtofl+1)^0,w,c
  6207   002414  1218               	iorwf	(___xxtofl@arg+1)^0,f,c
  6208   002416  5013               	movf	(??___xxtofl+2)^0,w,c
  6209   002418  1219               	iorwf	(___xxtofl@arg+2)^0,f,c
  6210   00241A  5014               	movf	(??___xxtofl+3)^0,w,c
  6211   00241C  121A               	iorwf	(___xxtofl@arg+3)^0,f,c
  6212   00241E  5015               	movf	___xxtofl@sign^0,w,c
  6213   002420  B4D8               	btfsc	status,2,c
  6214   002422  EF15  F012         	goto	u6391
  6215   002426  EF17  F012         	goto	u6390
  6216   00242A                     u6391:
  6217   00242A  EF1F  F012         	goto	l5643
  6218   00242E                     u6390:
  6219   00242E  BE10               	btfsc	(___xxtofl@val+3)^0,7,c
  6220   002430  EF1E  F012         	goto	u6400
  6221   002434  EF1C  F012         	goto	u6401
  6222   002438                     u6401:
  6223   002438  EF1F  F012         	goto	l5643
  6224   00243C                     u6400:
  6225   00243C  8E1A               	bsf	(___xxtofl@arg+3)^0,7,c
  6226   00243E                     l5643:
  6227   00243E  C017  F00D         	movff	___xxtofl@arg,?___xxtofl
  6228   002442  C018  F00E         	movff	___xxtofl@arg+1,?___xxtofl+1
  6229   002446  C019  F00F         	movff	___xxtofl@arg+2,?___xxtofl+2
  6230   00244A  C01A  F010         	movff	___xxtofl@arg+3,?___xxtofl+3
  6231   00244E                     l1319:
  6232   00244E  0012               	return		;funcret
  6233   002450                     __end_of___xxtofl:
  6234                           	callstack 0
  6235                           
  6236 ;; *************** function ___fltol *****************
  6237 ;; Defined at:
  6238 ;;		line 43 in file "C:\Program Files\Microchip\xc8\v2.41\pic\sources\c99\common\fltol.c"
  6239 ;; Parameters:    Size  Location     Type
  6240 ;;  f1              4   92[COMRAM] unsigned char 
  6241 ;; Auto vars:     Size  Location     Type
  6242 ;;  exp1            1  101[COMRAM] unsigned char 
  6243 ;;  sign1           1  100[COMRAM] unsigned char 
  6244 ;; Return value:  Size  Location     Type
  6245 ;;                  4   92[COMRAM] long 
  6246 ;; Registers used:
  6247 ;;		wreg, status,2, status,0
  6248 ;; Tracked objects:
  6249 ;;		On entry : 0/0
  6250 ;;		On exit  : 0/0
  6251 ;;		Unchanged: 0/0
  6252 ;; Data sizes:     COMRAM   BANK0   BANK1   BANK2   BANK3   BANK4   BANK5   BANK6   BANK7   BANK8   BANK9  BANK10  BANK1
      +1  BANK12  BANK13  BANK14  BANK15
  6253 ;;      Params:         4       0       0       0       0       0       0       0       0       0       0       0       
      +0       0       0       0       0
  6254 ;;      Locals:         2       0       0       0       0       0       0       0       0       0       0       0       
      +0       0       0       0       0
  6255 ;;      Temps:          4       0       0       0       0       0       0       0       0       0       0       0       
      +0       0       0       0       0
  6256 ;;      Totals:        10       0       0       0       0       0       0       0       0       0       0       0       
      +0       0       0       0       0
  6257 ;;Total ram usage:       10 bytes
  6258 ;; Hardware stack levels used: 1
  6259 ;; Hardware stack levels required when called: 4
  6260 ;; This function calls:
  6261 ;;		Nothing
  6262 ;; This function is called by:
  6263 ;;		_set_pwm_period
  6264 ;;		_CCP_PWM_Set_Duty
  6265 ;;		_main
  6266 ;; This function uses a non-reentrant model
  6267 ;;
  6268                           
  6269                           	psect	text38
  6270   002FBE                     __ptext38:
  6271                           	callstack 0
  6272   002FBE                     ___fltol:
  6273                           	callstack 23
  6274   002FBE  345F               	rlcf	(___fltol@f1+2)^0,w,c
  6275   002FC0  3460               	rlcf	(___fltol@f1+3)^0,w,c
  6276   002FC2  6E66               	movwf	___fltol@exp1^0,c
  6277   002FC4  5066               	movf	___fltol@exp1^0,w,c
  6278   002FC6  A4D8               	btfss	status,2,c
  6279   002FC8  EFE8  F017         	goto	u6241
  6280   002FCC  EFEA  F017         	goto	u6240
  6281   002FD0                     u6241:
  6282   002FD0  EFF4  F017         	goto	l5563
  6283   002FD4                     u6240:
  6284   002FD4                     l5559:
  6285   002FD4  0E00               	movlw	0
  6286   002FD6  6E5D               	movwf	?___fltol^0,c
  6287   002FD8  0E00               	movlw	0
  6288   002FDA  6E5E               	movwf	(?___fltol+1)^0,c
  6289   002FDC  0E00               	movlw	0
  6290   002FDE  6E5F               	movwf	(?___fltol+2)^0,c
  6291   002FE0  0E00               	movlw	0
  6292   002FE2  6E60               	movwf	(?___fltol+3)^0,c
  6293   002FE4  EF61  F018         	goto	l958
  6294   002FE8                     l5563:
  6295   002FE8  C05D  F061         	movff	___fltol@f1,??___fltol
  6296   002FEC  C05E  F062         	movff	___fltol@f1+1,??___fltol+1
  6297   002FF0  C05F  F063         	movff	___fltol@f1+2,??___fltol+2
  6298   002FF4  C060  F064         	movff	___fltol@f1+3,??___fltol+3
  6299   002FF8  0E20               	movlw	32
  6300   002FFA  EF04  F018         	goto	u6250
  6301   002FFE                     u6255:
  6302   002FFE  90D8               	bcf	status,0,c
  6303   003000  3264               	rrcf	(??___fltol+3)^0,f,c
  6304   003002  3263               	rrcf	(??___fltol+2)^0,f,c
  6305   003004  3262               	rrcf	(??___fltol+1)^0,f,c
  6306   003006  3261               	rrcf	??___fltol^0,f,c
  6307   003008                     u6250:
  6308   003008  2EE8               	decfsz	wreg,f,c
  6309   00300A  EFFF  F017         	goto	u6255
  6310   00300E  5061               	movf	??___fltol^0,w,c
  6311   003010  6E65               	movwf	___fltol@sign1^0,c
  6312   003012  8E5F               	bsf	(___fltol@f1+2)^0,7,c
  6313   003014  0EFF               	movlw	255
  6314   003016  165D               	andwf	___fltol@f1^0,f,c
  6315   003018  0EFF               	movlw	255
  6316   00301A  165E               	andwf	(___fltol@f1+1)^0,f,c
  6317   00301C  0EFF               	movlw	255
  6318   00301E  165F               	andwf	(___fltol@f1+2)^0,f,c
  6319   003020  0E00               	movlw	0
  6320   003022  1660               	andwf	(___fltol@f1+3)^0,f,c
  6321   003024  0E96               	movlw	150
  6322   003026  5E66               	subwf	___fltol@exp1^0,f,c
  6323   003028  BE66               	btfsc	___fltol@exp1^0,7,c
  6324   00302A  EF1B  F018         	goto	u6260
  6325   00302E  EF19  F018         	goto	u6261
  6326   003032                     u6261:
  6327   003032  EF31  F018         	goto	l5583
  6328   003036                     u6260:
  6329   003036  5066               	movf	___fltol@exp1^0,w,c
  6330   003038  0A80               	xorlw	128
  6331   00303A  0F97               	addlw	151
  6332   00303C  B0D8               	btfsc	status,0,c
  6333   00303E  EF23  F018         	goto	u6271
  6334   003042  EF25  F018         	goto	u6270
  6335   003046                     u6271:
  6336   003046  EF27  F018         	goto	l5579
  6337   00304A                     u6270:
  6338   00304A  EFEA  F017         	goto	l5559
  6339   00304E                     l5579:
  6340   00304E  90D8               	bcf	status,0,c
  6341   003050  3260               	rrcf	(___fltol@f1+3)^0,f,c
  6342   003052  325F               	rrcf	(___fltol@f1+2)^0,f,c
  6343   003054  325E               	rrcf	(___fltol@f1+1)^0,f,c
  6344   003056  325D               	rrcf	___fltol@f1^0,f,c
  6345   003058  3E66               	incfsz	___fltol@exp1^0,f,c
  6346   00305A  EF27  F018         	goto	l5579
  6347   00305E  EF49  F018         	goto	l5593
  6348   003062                     l5583:
  6349   003062  0E1F               	movlw	31
  6350   003064  6466               	cpfsgt	___fltol@exp1^0,c
  6351   003066  EF37  F018         	goto	u6281
  6352   00306A  EF39  F018         	goto	u6280
  6353   00306E                     u6281:
  6354   00306E  EF41  F018         	goto	l5591
  6355   003072                     u6280:
  6356   003072  EFEA  F017         	goto	l5559
  6357   003076                     l5589:
  6358   003076  90D8               	bcf	status,0,c
  6359   003078  365D               	rlcf	___fltol@f1^0,f,c
  6360   00307A  365E               	rlcf	(___fltol@f1+1)^0,f,c
  6361   00307C  365F               	rlcf	(___fltol@f1+2)^0,f,c
  6362   00307E  3660               	rlcf	(___fltol@f1+3)^0,f,c
  6363   003080  0666               	decf	___fltol@exp1^0,f,c
  6364   003082                     l5591:
  6365   003082  5066               	movf	___fltol@exp1^0,w,c
  6366   003084  A4D8               	btfss	status,2,c
  6367   003086  EF47  F018         	goto	u6291
  6368   00308A  EF49  F018         	goto	u6290
  6369   00308E                     u6291:
  6370   00308E  EF3B  F018         	goto	l5589
  6371   003092                     u6290:
  6372   003092                     l5593:
  6373   003092  5065               	movf	___fltol@sign1^0,w,c
  6374   003094  B4D8               	btfsc	status,2,c
  6375   003096  EF4F  F018         	goto	u6301
  6376   00309A  EF51  F018         	goto	u6300
  6377   00309E                     u6301:
  6378   00309E  EF59  F018         	goto	l5597
  6379   0030A2                     u6300:
  6380   0030A2  1E60               	comf	(___fltol@f1+3)^0,f,c
  6381   0030A4  1E5F               	comf	(___fltol@f1+2)^0,f,c
  6382   0030A6  1E5E               	comf	(___fltol@f1+1)^0,f,c
  6383   0030A8  6C5D               	negf	___fltol@f1^0,c
  6384   0030AA  0E00               	movlw	0
  6385   0030AC  225E               	addwfc	(___fltol@f1+1)^0,f,c
  6386   0030AE  225F               	addwfc	(___fltol@f1+2)^0,f,c
  6387   0030B0  2260               	addwfc	(___fltol@f1+3)^0,f,c
  6388   0030B2                     l5597:
  6389   0030B2  C05D  F05D         	movff	___fltol@f1,?___fltol
  6390   0030B6  C05E  F05E         	movff	___fltol@f1+1,?___fltol+1
  6391   0030BA  C05F  F05F         	movff	___fltol@f1+2,?___fltol+2
  6392   0030BE  C060  F060         	movff	___fltol@f1+3,?___fltol+3
  6393   0030C2                     l958:
  6394   0030C2  0012               	return		;funcret
  6395   0030C4                     __end_of___fltol:
  6396                           	callstack 0
  6397                           
  6398 ;; *************** function ___flmul *****************
  6399 ;; Defined at:
  6400 ;;		line 8 in file "C:\Program Files\Microchip\xc8\v2.41\pic\sources\c99\common\sprcmul.c"
  6401 ;; Parameters:    Size  Location     Type
  6402 ;;  b               4   26[COMRAM] long 
  6403 ;;  a               4   30[COMRAM] long 
  6404 ;; Auto vars:     Size  Location     Type
  6405 ;;  prod            4   45[COMRAM] struct .
  6406 ;;  grs             4   40[COMRAM] unsigned long 
  6407 ;;  temp            2   49[COMRAM] struct .
  6408 ;;  bexp            1   44[COMRAM] unsigned char 
  6409 ;;  aexp            1   39[COMRAM] unsigned char 
  6410 ;;  sign            1   38[COMRAM] unsigned char 
  6411 ;; Return value:  Size  Location     Type
  6412 ;;                  4   26[COMRAM] unsigned char 
  6413 ;; Registers used:
  6414 ;;		wreg, status,2, status,0, prodl, prodh
  6415 ;; Tracked objects:
  6416 ;;		On entry : 0/0
  6417 ;;		On exit  : 0/0
  6418 ;;		Unchanged: 0/0
  6419 ;; Data sizes:     COMRAM   BANK0   BANK1   BANK2   BANK3   BANK4   BANK5   BANK6   BANK7   BANK8   BANK9  BANK10  BANK1
      +1  BANK12  BANK13  BANK14  BANK15
  6420 ;;      Params:         8       0       0       0       0       0       0       0       0       0       0       0       
      +0       0       0       0       0
  6421 ;;      Locals:        13       0       0       0       0       0       0       0       0       0       0       0       
      +0       0       0       0       0
  6422 ;;      Temps:          4       0       0       0       0       0       0       0       0       0       0       0       
      +0       0       0       0       0
  6423 ;;      Totals:        25       0       0       0       0       0       0       0       0       0       0       0       
      +0       0       0       0       0
  6424 ;;Total ram usage:       25 bytes
  6425 ;; Hardware stack levels used: 1
  6426 ;; Hardware stack levels required when called: 4
  6427 ;; This function calls:
  6428 ;;		Nothing
  6429 ;; This function is called by:
  6430 ;;		_set_pwm_period
  6431 ;;		_CCP_PWM_Set_Duty
  6432 ;;		_main
  6433 ;; This function uses a non-reentrant model
  6434 ;;
  6435                           
  6436                           	psect	text39
  6437   001532                     __ptext39:
  6438                           	callstack 0
  6439   001532                     ___flmul:
  6440                           	callstack 23
  6441   001532  501E               	movf	(___flmul@b+3)^0,w,c
  6442   001534  0B80               	andlw	128
  6443   001536  6E27               	movwf	___flmul@sign^0,c
  6444   001538  501E               	movf	(___flmul@b+3)^0,w,c
  6445   00153A  241E               	addwf	(___flmul@b+3)^0,w,c
  6446   00153C  6E2D               	movwf	___flmul@bexp^0,c
  6447   00153E  AE1D               	btfss	(___flmul@b+2)^0,7,c
  6448   001540  EFA4  F00A         	goto	u6051
  6449   001544  EFA6  F00A         	goto	u6050
  6450   001548                     u6051:
  6451   001548  EFA7  F00A         	goto	l5433
  6452   00154C                     u6050:
  6453   00154C  802D               	bsf	___flmul@bexp^0,0,c
  6454   00154E                     l5433:
  6455   00154E  502D               	movf	___flmul@bexp^0,w,c
  6456   001550  B4D8               	btfsc	status,2,c
  6457   001552  EFAD  F00A         	goto	u6061
  6458   001556  EFAF  F00A         	goto	u6060
  6459   00155A                     u6061:
  6460   00155A  EFC2  F00A         	goto	l5441
  6461   00155E                     u6060:
  6462   00155E  282D               	incf	___flmul@bexp^0,w,c
  6463   001560  A4D8               	btfss	status,2,c
  6464   001562  EFB5  F00A         	goto	u6071
  6465   001566  EFB7  F00A         	goto	u6070
  6466   00156A                     u6071:
  6467   00156A  EFBF  F00A         	goto	l5439
  6468   00156E                     u6070:
  6469   00156E  0E00               	movlw	0
  6470   001570  6E1B               	movwf	___flmul@b^0,c
  6471   001572  0E00               	movlw	0
  6472   001574  6E1C               	movwf	(___flmul@b+1)^0,c
  6473   001576  0E00               	movlw	0
  6474   001578  6E1D               	movwf	(___flmul@b+2)^0,c
  6475   00157A  0E00               	movlw	0
  6476   00157C  6E1E               	movwf	(___flmul@b+3)^0,c
  6477   00157E                     l5439:
  6478   00157E  8E1D               	bsf	(___flmul@b+2)^0,7,c
  6479   001580  EFCA  F00A         	goto	l5443
  6480   001584                     l5441:
  6481   001584  0E00               	movlw	0
  6482   001586  6E1B               	movwf	___flmul@b^0,c
  6483   001588  0E00               	movlw	0
  6484   00158A  6E1C               	movwf	(___flmul@b+1)^0,c
  6485   00158C  0E00               	movlw	0
  6486   00158E  6E1D               	movwf	(___flmul@b+2)^0,c
  6487   001590  0E00               	movlw	0
  6488   001592  6E1E               	movwf	(___flmul@b+3)^0,c
  6489   001594                     l5443:
  6490   001594  5022               	movf	(___flmul@a+3)^0,w,c
  6491   001596  0B80               	andlw	128
  6492   001598  1A27               	xorwf	___flmul@sign^0,f,c
  6493   00159A  5022               	movf	(___flmul@a+3)^0,w,c
  6494   00159C  2422               	addwf	(___flmul@a+3)^0,w,c
  6495   00159E  6E28               	movwf	___flmul@aexp^0,c
  6496   0015A0  AE21               	btfss	(___flmul@a+2)^0,7,c
  6497   0015A2  EFD5  F00A         	goto	u6081
  6498   0015A6  EFD7  F00A         	goto	u6080
  6499   0015AA                     u6081:
  6500   0015AA  EFD8  F00A         	goto	l5451
  6501   0015AE                     u6080:
  6502   0015AE  8028               	bsf	___flmul@aexp^0,0,c
  6503   0015B0                     l5451:
  6504   0015B0  5028               	movf	___flmul@aexp^0,w,c
  6505   0015B2  B4D8               	btfsc	status,2,c
  6506   0015B4  EFDE  F00A         	goto	u6091
  6507   0015B8  EFE0  F00A         	goto	u6090
  6508   0015BC                     u6091:
  6509   0015BC  EFF3  F00A         	goto	l5459
  6510   0015C0                     u6090:
  6511   0015C0  2828               	incf	___flmul@aexp^0,w,c
  6512   0015C2  A4D8               	btfss	status,2,c
  6513   0015C4  EFE6  F00A         	goto	u6101
  6514   0015C8  EFE8  F00A         	goto	u6100
  6515   0015CC                     u6101:
  6516   0015CC  EFF0  F00A         	goto	l5457
  6517   0015D0                     u6100:
  6518   0015D0  0E00               	movlw	0
  6519   0015D2  6E1F               	movwf	___flmul@a^0,c
  6520   0015D4  0E00               	movlw	0
  6521   0015D6  6E20               	movwf	(___flmul@a+1)^0,c
  6522   0015D8  0E00               	movlw	0
  6523   0015DA  6E21               	movwf	(___flmul@a+2)^0,c
  6524   0015DC  0E00               	movlw	0
  6525   0015DE  6E22               	movwf	(___flmul@a+3)^0,c
  6526   0015E0                     l5457:
  6527   0015E0  8E21               	bsf	(___flmul@a+2)^0,7,c
  6528   0015E2  EFFB  F00A         	goto	l1275
  6529   0015E6                     l5459:
  6530   0015E6  0E00               	movlw	0
  6531   0015E8  6E1F               	movwf	___flmul@a^0,c
  6532   0015EA  0E00               	movlw	0
  6533   0015EC  6E20               	movwf	(___flmul@a+1)^0,c
  6534   0015EE  0E00               	movlw	0
  6535   0015F0  6E21               	movwf	(___flmul@a+2)^0,c
  6536   0015F2  0E00               	movlw	0
  6537   0015F4  6E22               	movwf	(___flmul@a+3)^0,c
  6538   0015F6                     l1275:
  6539   0015F6  5028               	movf	___flmul@aexp^0,w,c
  6540   0015F8  B4D8               	btfsc	status,2,c
  6541   0015FA  EF01  F00B         	goto	u6111
  6542   0015FE  EF03  F00B         	goto	u6110
  6543   001602                     u6111:
  6544   001602  EF0B  F00B         	goto	l5463
  6545   001606                     u6110:
  6546   001606  502D               	movf	___flmul@bexp^0,w,c
  6547   001608  A4D8               	btfss	status,2,c
  6548   00160A  EF09  F00B         	goto	u6121
  6549   00160E  EF0B  F00B         	goto	u6120
  6550   001612                     u6121:
  6551   001612  EF15  F00B         	goto	l5467
  6552   001616                     u6120:
  6553   001616                     l5463:
  6554   001616  0E00               	movlw	0
  6555   001618  6E1B               	movwf	?___flmul^0,c
  6556   00161A  0E00               	movlw	0
  6557   00161C  6E1C               	movwf	(?___flmul+1)^0,c
  6558   00161E  0E00               	movlw	0
  6559   001620  6E1D               	movwf	(?___flmul+2)^0,c
  6560   001622  0E00               	movlw	0
  6561   001624  6E1E               	movwf	(?___flmul+3)^0,c
  6562   001626  EFAD  F00C         	goto	l1279
  6563   00162A                     l5467:
  6564   00162A  5021               	movf	(___flmul@a+2)^0,w,c
  6565   00162C  021B               	mulwf	___flmul@b^0,c
  6566   00162E  CFF3 F032          	movff	prodl,___flmul@temp
  6567   001632  CFF4 F033          	movff	prodh,___flmul@temp+1
  6568   001636  5032               	movf	___flmul@temp^0,w,c
  6569   001638  6E29               	movwf	___flmul@grs^0,c
  6570   00163A  6A2A               	clrf	(___flmul@grs+1)^0,c
  6571   00163C  6A2B               	clrf	(___flmul@grs+2)^0,c
  6572   00163E  6A2C               	clrf	(___flmul@grs+3)^0,c
  6573   001640  5033               	movf	(___flmul@temp+1)^0,w,c
  6574   001642  6E2E               	movwf	___flmul@prod^0,c
  6575   001644  6A2F               	clrf	(___flmul@prod+1)^0,c
  6576   001646  6A30               	clrf	(___flmul@prod+2)^0,c
  6577   001648  6A31               	clrf	(___flmul@prod+3)^0,c
  6578   00164A  5020               	movf	(___flmul@a+1)^0,w,c
  6579   00164C  021C               	mulwf	(___flmul@b+1)^0,c
  6580   00164E  CFF3 F032          	movff	prodl,___flmul@temp
  6581   001652  CFF4 F033          	movff	prodh,___flmul@temp+1
  6582   001656  5032               	movf	___flmul@temp^0,w,c
  6583   001658  2629               	addwf	___flmul@grs^0,f,c
  6584   00165A  0E00               	movlw	0
  6585   00165C  222A               	addwfc	(___flmul@grs+1)^0,f,c
  6586   00165E  222B               	addwfc	(___flmul@grs+2)^0,f,c
  6587   001660  222C               	addwfc	(___flmul@grs+3)^0,f,c
  6588   001662  5033               	movf	(___flmul@temp+1)^0,w,c
  6589   001664  262E               	addwf	___flmul@prod^0,f,c
  6590   001666  0E00               	movlw	0
  6591   001668  222F               	addwfc	(___flmul@prod+1)^0,f,c
  6592   00166A  2230               	addwfc	(___flmul@prod+2)^0,f,c
  6593   00166C  2231               	addwfc	(___flmul@prod+3)^0,f,c
  6594   00166E  501F               	movf	___flmul@a^0,w,c
  6595   001670  021D               	mulwf	(___flmul@b+2)^0,c
  6596   001672  CFF3 F032          	movff	prodl,___flmul@temp
  6597   001676  CFF4 F033          	movff	prodh,___flmul@temp+1
  6598   00167A  5032               	movf	___flmul@temp^0,w,c
  6599   00167C  2629               	addwf	___flmul@grs^0,f,c
  6600   00167E  0E00               	movlw	0
  6601   001680  222A               	addwfc	(___flmul@grs+1)^0,f,c
  6602   001682  222B               	addwfc	(___flmul@grs+2)^0,f,c
  6603   001684  222C               	addwfc	(___flmul@grs+3)^0,f,c
  6604   001686  5033               	movf	(___flmul@temp+1)^0,w,c
  6605   001688  262E               	addwf	___flmul@prod^0,f,c
  6606   00168A  0E00               	movlw	0
  6607   00168C  222F               	addwfc	(___flmul@prod+1)^0,f,c
  6608   00168E  2230               	addwfc	(___flmul@prod+2)^0,f,c
  6609   001690  2231               	addwfc	(___flmul@prod+3)^0,f,c
  6610   001692  C02B  F02C         	movff	___flmul@grs+2,___flmul@grs+3
  6611   001696  C02A  F02B         	movff	___flmul@grs+1,___flmul@grs+2
  6612   00169A  C029  F02A         	movff	___flmul@grs,___flmul@grs+1
  6613   00169E  6A29               	clrf	___flmul@grs^0,c
  6614   0016A0  501F               	movf	___flmul@a^0,w,c
  6615   0016A2  021C               	mulwf	(___flmul@b+1)^0,c
  6616   0016A4  CFF3 F032          	movff	prodl,___flmul@temp
  6617   0016A8  CFF4 F033          	movff	prodh,___flmul@temp+1
  6618   0016AC  5032               	movf	___flmul@temp^0,w,c
  6619   0016AE  2629               	addwf	___flmul@grs^0,f,c
  6620   0016B0  5033               	movf	(___flmul@temp+1)^0,w,c
  6621   0016B2  222A               	addwfc	(___flmul@grs+1)^0,f,c
  6622   0016B4  0E00               	movlw	0
  6623   0016B6  222B               	addwfc	(___flmul@grs+2)^0,f,c
  6624   0016B8  0E00               	movlw	0
  6625   0016BA  222C               	addwfc	(___flmul@grs+3)^0,f,c
  6626   0016BC  5020               	movf	(___flmul@a+1)^0,w,c
  6627   0016BE  021B               	mulwf	___flmul@b^0,c
  6628   0016C0  CFF3 F032          	movff	prodl,___flmul@temp
  6629   0016C4  CFF4 F033          	movff	prodh,___flmul@temp+1
  6630   0016C8  5032               	movf	___flmul@temp^0,w,c
  6631   0016CA  2629               	addwf	___flmul@grs^0,f,c
  6632   0016CC  5033               	movf	(___flmul@temp+1)^0,w,c
  6633   0016CE  222A               	addwfc	(___flmul@grs+1)^0,f,c
  6634   0016D0  0E00               	movlw	0
  6635   0016D2  222B               	addwfc	(___flmul@grs+2)^0,f,c
  6636   0016D4  0E00               	movlw	0
  6637   0016D6  222C               	addwfc	(___flmul@grs+3)^0,f,c
  6638   0016D8  C02B  F02C         	movff	___flmul@grs+2,___flmul@grs+3
  6639   0016DC  C02A  F02B         	movff	___flmul@grs+1,___flmul@grs+2
  6640   0016E0  C029  F02A         	movff	___flmul@grs,___flmul@grs+1
  6641   0016E4  6A29               	clrf	___flmul@grs^0,c
  6642   0016E6  501F               	movf	___flmul@a^0,w,c
  6643   0016E8  021B               	mulwf	___flmul@b^0,c
  6644   0016EA  CFF3 F032          	movff	prodl,___flmul@temp
  6645   0016EE  CFF4 F033          	movff	prodh,___flmul@temp+1
  6646   0016F2  5032               	movf	___flmul@temp^0,w,c
  6647   0016F4  2629               	addwf	___flmul@grs^0,f,c
  6648   0016F6  5033               	movf	(___flmul@temp+1)^0,w,c
  6649   0016F8  222A               	addwfc	(___flmul@grs+1)^0,f,c
  6650   0016FA  0E00               	movlw	0
  6651   0016FC  222B               	addwfc	(___flmul@grs+2)^0,f,c
  6652   0016FE  0E00               	movlw	0
  6653   001700  222C               	addwfc	(___flmul@grs+3)^0,f,c
  6654   001702  5021               	movf	(___flmul@a+2)^0,w,c
  6655   001704  021C               	mulwf	(___flmul@b+1)^0,c
  6656   001706  CFF3 F032          	movff	prodl,___flmul@temp
  6657   00170A  CFF4 F033          	movff	prodh,___flmul@temp+1
  6658   00170E  5032               	movf	___flmul@temp^0,w,c
  6659   001710  262E               	addwf	___flmul@prod^0,f,c
  6660   001712  5033               	movf	(___flmul@temp+1)^0,w,c
  6661   001714  222F               	addwfc	(___flmul@prod+1)^0,f,c
  6662   001716  0E00               	movlw	0
  6663   001718  2230               	addwfc	(___flmul@prod+2)^0,f,c
  6664   00171A  0E00               	movlw	0
  6665   00171C  2231               	addwfc	(___flmul@prod+3)^0,f,c
  6666   00171E  5020               	movf	(___flmul@a+1)^0,w,c
  6667   001720  021D               	mulwf	(___flmul@b+2)^0,c
  6668   001722  CFF3 F032          	movff	prodl,___flmul@temp
  6669   001726  CFF4 F033          	movff	prodh,___flmul@temp+1
  6670   00172A  5032               	movf	___flmul@temp^0,w,c
  6671   00172C  262E               	addwf	___flmul@prod^0,f,c
  6672   00172E  5033               	movf	(___flmul@temp+1)^0,w,c
  6673   001730  222F               	addwfc	(___flmul@prod+1)^0,f,c
  6674   001732  0E00               	movlw	0
  6675   001734  2230               	addwfc	(___flmul@prod+2)^0,f,c
  6676   001736  0E00               	movlw	0
  6677   001738  2231               	addwfc	(___flmul@prod+3)^0,f,c
  6678   00173A  5021               	movf	(___flmul@a+2)^0,w,c
  6679   00173C  021D               	mulwf	(___flmul@b+2)^0,c
  6680   00173E  CFF3 F032          	movff	prodl,___flmul@temp
  6681   001742  CFF4 F033          	movff	prodh,___flmul@temp+1
  6682   001746  5032               	movf	___flmul@temp^0,w,c
  6683   001748  6E23               	movwf	??___flmul^0,c
  6684   00174A  5033               	movf	(___flmul@temp+1)^0,w,c
  6685   00174C  6E24               	movwf	(??___flmul+1)^0,c
  6686   00174E  6A25               	clrf	(??___flmul+2)^0,c
  6687   001750  6A26               	clrf	(??___flmul+3)^0,c
  6688   001752  C025  F026         	movff	??___flmul+2,??___flmul+3
  6689   001756  C024  F025         	movff	??___flmul+1,??___flmul+2
  6690   00175A  C023  F024         	movff	??___flmul,??___flmul+1
  6691   00175E  6A23               	clrf	??___flmul^0,c
  6692   001760  5023               	movf	??___flmul^0,w,c
  6693   001762  262E               	addwf	___flmul@prod^0,f,c
  6694   001764  5024               	movf	(??___flmul+1)^0,w,c
  6695   001766  222F               	addwfc	(___flmul@prod+1)^0,f,c
  6696   001768  5025               	movf	(??___flmul+2)^0,w,c
  6697   00176A  2230               	addwfc	(___flmul@prod+2)^0,f,c
  6698   00176C  5026               	movf	(??___flmul+3)^0,w,c
  6699   00176E  2231               	addwfc	(___flmul@prod+3)^0,f,c
  6700   001770  C029  F023         	movff	___flmul@grs,??___flmul
  6701   001774  C02A  F024         	movff	___flmul@grs+1,??___flmul+1
  6702   001778  C02B  F025         	movff	___flmul@grs+2,??___flmul+2
  6703   00177C  C02C  F026         	movff	___flmul@grs+3,??___flmul+3
  6704   001780  0E19               	movlw	25
  6705   001782  EFC8  F00B         	goto	u6130
  6706   001786                     u6135:
  6707   001786  90D8               	bcf	status,0,c
  6708   001788  3226               	rrcf	(??___flmul+3)^0,f,c
  6709   00178A  3225               	rrcf	(??___flmul+2)^0,f,c
  6710   00178C  3224               	rrcf	(??___flmul+1)^0,f,c
  6711   00178E  3223               	rrcf	??___flmul^0,f,c
  6712   001790                     u6130:
  6713   001790  2EE8               	decfsz	wreg,f,c
  6714   001792  EFC3  F00B         	goto	u6135
  6715   001796  5023               	movf	??___flmul^0,w,c
  6716   001798  262E               	addwf	___flmul@prod^0,f,c
  6717   00179A  5024               	movf	(??___flmul+1)^0,w,c
  6718   00179C  222F               	addwfc	(___flmul@prod+1)^0,f,c
  6719   00179E  5025               	movf	(??___flmul+2)^0,w,c
  6720   0017A0  2230               	addwfc	(___flmul@prod+2)^0,f,c
  6721   0017A2  5026               	movf	(??___flmul+3)^0,w,c
  6722   0017A4  2231               	addwfc	(___flmul@prod+3)^0,f,c
  6723   0017A6  C02B  F02C         	movff	___flmul@grs+2,___flmul@grs+3
  6724   0017AA  C02A  F02B         	movff	___flmul@grs+1,___flmul@grs+2
  6725   0017AE  C029  F02A         	movff	___flmul@grs,___flmul@grs+1
  6726   0017B2  6A29               	clrf	___flmul@grs^0,c
  6727   0017B4  5028               	movf	___flmul@aexp^0,w,c
  6728   0017B6  C02D  F023         	movff	___flmul@bexp,??___flmul
  6729   0017BA  6A24               	clrf	(??___flmul+1)^0,c
  6730   0017BC  2623               	addwf	??___flmul^0,f,c
  6731   0017BE  0E00               	movlw	0
  6732   0017C0  2224               	addwfc	(??___flmul+1)^0,f,c
  6733   0017C2  0E82               	movlw	130
  6734   0017C4  2423               	addwf	??___flmul^0,w,c
  6735   0017C6  6E32               	movwf	___flmul@temp^0,c
  6736   0017C8  0EFF               	movlw	255
  6737   0017CA  2024               	addwfc	(??___flmul+1)^0,w,c
  6738   0017CC  6E33               	movwf	(___flmul@temp+1)^0,c
  6739   0017CE  EFFE  F00B         	goto	l5515
  6740   0017D2                     l5509:
  6741   0017D2  90D8               	bcf	status,0,c
  6742   0017D4  362E               	rlcf	___flmul@prod^0,f,c
  6743   0017D6  362F               	rlcf	(___flmul@prod+1)^0,f,c
  6744   0017D8  3630               	rlcf	(___flmul@prod+2)^0,f,c
  6745   0017DA  3631               	rlcf	(___flmul@prod+3)^0,f,c
  6746   0017DC  AE2C               	btfss	(___flmul@grs+3)^0,7,c
  6747   0017DE  EFF3  F00B         	goto	u6141
  6748   0017E2  EFF5  F00B         	goto	u6140
  6749   0017E6                     u6141:
  6750   0017E6  EFF6  F00B         	goto	l1282
  6751   0017EA                     u6140:
  6752   0017EA  802E               	bsf	___flmul@prod^0,0,c
  6753   0017EC                     l1282:
  6754   0017EC  90D8               	bcf	status,0,c
  6755   0017EE  3629               	rlcf	___flmul@grs^0,f,c
  6756   0017F0  362A               	rlcf	(___flmul@grs+1)^0,f,c
  6757   0017F2  362B               	rlcf	(___flmul@grs+2)^0,f,c
  6758   0017F4  362C               	rlcf	(___flmul@grs+3)^0,f,c
  6759   0017F6  0632               	decf	___flmul@temp^0,f,c
  6760   0017F8  A0D8               	btfss	status,0,c
  6761   0017FA  0633               	decf	(___flmul@temp+1)^0,f,c
  6762   0017FC                     l5515:
  6763   0017FC  AE30               	btfss	(___flmul@prod+2)^0,7,c
  6764   0017FE  EF03  F00C         	goto	u6151
  6765   001802  EF05  F00C         	goto	u6150
  6766   001806                     u6151:
  6767   001806  EFE9  F00B         	goto	l5509
  6768   00180A                     u6150:
  6769   00180A  0E00               	movlw	0
  6770   00180C  6E28               	movwf	___flmul@aexp^0,c
  6771   00180E  AE2C               	btfss	(___flmul@grs+3)^0,7,c
  6772   001810  EF0C  F00C         	goto	u6161
  6773   001814  EF0E  F00C         	goto	u6160
  6774   001818                     u6161:
  6775   001818  EF32  F00C         	goto	l1284
  6776   00181C                     u6160:
  6777   00181C  0EFF               	movlw	255
  6778   00181E  1429               	andwf	___flmul@grs^0,w,c
  6779   001820  6E23               	movwf	??___flmul^0,c
  6780   001822  0EFF               	movlw	255
  6781   001824  142A               	andwf	(___flmul@grs+1)^0,w,c
  6782   001826  6E24               	movwf	(??___flmul+1)^0,c
  6783   001828  0EFF               	movlw	255
  6784   00182A  142B               	andwf	(___flmul@grs+2)^0,w,c
  6785   00182C  6E25               	movwf	(??___flmul+2)^0,c
  6786   00182E  0E7F               	movlw	127
  6787   001830  142C               	andwf	(___flmul@grs+3)^0,w,c
  6788   001832  6E26               	movwf	(??___flmul+3)^0,c
  6789   001834  5023               	movf	??___flmul^0,w,c
  6790   001836  1024               	iorwf	(??___flmul+1)^0,w,c
  6791   001838  1025               	iorwf	(??___flmul+2)^0,w,c
  6792   00183A  1026               	iorwf	(??___flmul+3)^0,w,c
  6793   00183C  B4D8               	btfsc	status,2,c
  6794   00183E  EF23  F00C         	goto	u6171
  6795   001842  EF25  F00C         	goto	u6170
  6796   001846                     u6171:
  6797   001846  EF29  F00C         	goto	l1285
  6798   00184A                     u6170:
  6799   00184A                     l5523:
  6800   00184A  0E01               	movlw	1
  6801   00184C  6E28               	movwf	___flmul@aexp^0,c
  6802   00184E  EF32  F00C         	goto	l1284
  6803   001852                     l1285:
  6804   001852  A02E               	btfss	___flmul@prod^0,0,c
  6805   001854  EF2E  F00C         	goto	u6181
  6806   001858  EF30  F00C         	goto	u6180
  6807   00185C                     u6181:
  6808   00185C  EF32  F00C         	goto	l1284
  6809   001860                     u6180:
  6810   001860  EF25  F00C         	goto	l5523
  6811   001864                     l1284:
  6812   001864  5028               	movf	___flmul@aexp^0,w,c
  6813   001866  B4D8               	btfsc	status,2,c
  6814   001868  EF38  F00C         	goto	u6191
  6815   00186C  EF3A  F00C         	goto	u6190
  6816   001870                     u6191:
  6817   001870  EF5E  F00C         	goto	l5535
  6818   001874                     u6190:
  6819   001874  0E01               	movlw	1
  6820   001876  262E               	addwf	___flmul@prod^0,f,c
  6821   001878  0E00               	movlw	0
  6822   00187A  222F               	addwfc	(___flmul@prod+1)^0,f,c
  6823   00187C  2230               	addwfc	(___flmul@prod+2)^0,f,c
  6824   00187E  2231               	addwfc	(___flmul@prod+3)^0,f,c
  6825   001880  A031               	btfss	(___flmul@prod+3)^0,0,c
  6826   001882  EF45  F00C         	goto	u6201
  6827   001886  EF47  F00C         	goto	u6200
  6828   00188A                     u6201:
  6829   00188A  EF5E  F00C         	goto	l5535
  6830   00188E                     u6200:
  6831   00188E  C02E  F023         	movff	___flmul@prod,??___flmul
  6832   001892  C02F  F024         	movff	___flmul@prod+1,??___flmul+1
  6833   001896  C030  F025         	movff	___flmul@prod+2,??___flmul+2
  6834   00189A  C031  F026         	movff	___flmul@prod+3,??___flmul+3
  6835   00189E  3426               	rlcf	(??___flmul+3)^0,w,c
  6836   0018A0  3226               	rrcf	(??___flmul+3)^0,f,c
  6837   0018A2  3225               	rrcf	(??___flmul+2)^0,f,c
  6838   0018A4  3224               	rrcf	(??___flmul+1)^0,f,c
  6839   0018A6  3223               	rrcf	??___flmul^0,f,c
  6840   0018A8  C023  F02E         	movff	??___flmul,___flmul@prod
  6841   0018AC  C024  F02F         	movff	??___flmul+1,___flmul@prod+1
  6842   0018B0  C025  F030         	movff	??___flmul+2,___flmul@prod+2
  6843   0018B4  C026  F031         	movff	??___flmul+3,___flmul@prod+3
  6844   0018B8  4A32               	infsnz	___flmul@temp^0,f,c
  6845   0018BA  2A33               	incf	(___flmul@temp+1)^0,f,c
  6846   0018BC                     l5535:
  6847   0018BC  BE33               	btfsc	(___flmul@temp+1)^0,7,c
  6848   0018BE  EF69  F00C         	goto	u6211
  6849   0018C2  5033               	movf	(___flmul@temp+1)^0,w,c
  6850   0018C4  E108               	bnz	u6210
  6851   0018C6  2832               	incf	___flmul@temp^0,w,c
  6852   0018C8  A0D8               	btfss	status,0,c
  6853   0018CA  EF69  F00C         	goto	u6211
  6854   0018CE  EF6B  F00C         	goto	u6210
  6855   0018D2                     u6211:
  6856   0018D2  EF75  F00C         	goto	l5539
  6857   0018D6                     u6210:
  6858   0018D6  0E00               	movlw	0
  6859   0018D8  6E2E               	movwf	___flmul@prod^0,c
  6860   0018DA  0E00               	movlw	0
  6861   0018DC  6E2F               	movwf	(___flmul@prod+1)^0,c
  6862   0018DE  0E80               	movlw	128
  6863   0018E0  6E30               	movwf	(___flmul@prod+2)^0,c
  6864   0018E2  0E7F               	movlw	127
  6865   0018E4  6E31               	movwf	(___flmul@prod+3)^0,c
  6866   0018E6  EFA3  F00C         	goto	l5551
  6867   0018EA                     l5539:
  6868   0018EA  BE33               	btfsc	(___flmul@temp+1)^0,7,c
  6869   0018EC  EF82  F00C         	goto	u6220
  6870   0018F0  5033               	movf	(___flmul@temp+1)^0,w,c
  6871   0018F2  E106               	bnz	u6221
  6872   0018F4  0432               	decf	___flmul@temp^0,w,c
  6873   0018F6  B0D8               	btfsc	status,0,c
  6874   0018F8  EF80  F00C         	goto	u6221
  6875   0018FC  EF82  F00C         	goto	u6220
  6876   001900                     u6221:
  6877   001900  EF8E  F00C         	goto	l1292
  6878   001904                     u6220:
  6879   001904  0E00               	movlw	0
  6880   001906  6E2E               	movwf	___flmul@prod^0,c
  6881   001908  0E00               	movlw	0
  6882   00190A  6E2F               	movwf	(___flmul@prod+1)^0,c
  6883   00190C  0E00               	movlw	0
  6884   00190E  6E30               	movwf	(___flmul@prod+2)^0,c
  6885   001910  0E00               	movlw	0
  6886   001912  6E31               	movwf	(___flmul@prod+3)^0,c
  6887   001914  0E00               	movlw	0
  6888   001916  6E27               	movwf	___flmul@sign^0,c
  6889   001918  EFA3  F00C         	goto	l5551
  6890   00191C                     l1292:
  6891   00191C  C032  F02D         	movff	___flmul@temp,___flmul@bexp
  6892   001920  0EFF               	movlw	255
  6893   001922  162E               	andwf	___flmul@prod^0,f,c
  6894   001924  0EFF               	movlw	255
  6895   001926  162F               	andwf	(___flmul@prod+1)^0,f,c
  6896   001928  0E7F               	movlw	127
  6897   00192A  1630               	andwf	(___flmul@prod+2)^0,f,c
  6898   00192C  0E00               	movlw	0
  6899   00192E  1631               	andwf	(___flmul@prod+3)^0,f,c
  6900   001930  A02D               	btfss	___flmul@bexp^0,0,c
  6901   001932  EF9D  F00C         	goto	u6231
  6902   001936  EF9F  F00C         	goto	u6230
  6903   00193A                     u6231:
  6904   00193A  EFA0  F00C         	goto	l5549
  6905   00193E                     u6230:
  6906   00193E  8E30               	bsf	(___flmul@prod+2)^0,7,c
  6907   001940                     l5549:
  6908   001940  90D8               	bcf	status,0,c
  6909   001942  302D               	rrcf	___flmul@bexp^0,w,c
  6910   001944  6E31               	movwf	(___flmul@prod+3)^0,c
  6911   001946                     l5551:
  6912   001946  5027               	movf	___flmul@sign^0,w,c
  6913   001948  1231               	iorwf	(___flmul@prod+3)^0,f,c
  6914   00194A  C02E  F01B         	movff	___flmul@prod,?___flmul
  6915   00194E  C02F  F01C         	movff	___flmul@prod+1,?___flmul+1
  6916   001952  C030  F01D         	movff	___flmul@prod+2,?___flmul+2
  6917   001956  C031  F01E         	movff	___flmul@prod+3,?___flmul+3
  6918   00195A                     l1279:
  6919   00195A  0012               	return		;funcret
  6920   00195C                     __end_of___flmul:
  6921                           	callstack 0
  6922                           
  6923 ;; *************** function ___fldiv *****************
  6924 ;; Defined at:
  6925 ;;		line 11 in file "C:\Program Files\Microchip\xc8\v2.41\pic\sources\c99\common\sprcdiv.c"
  6926 ;; Parameters:    Size  Location     Type
  6927 ;;  b               4   51[COMRAM] unsigned char 
  6928 ;;  a               4   55[COMRAM] unsigned char 
  6929 ;; Auto vars:     Size  Location     Type
  6930 ;;  grs             4   70[COMRAM] unsigned long 
  6931 ;;  rem             4   63[COMRAM] unsigned long 
  6932 ;;  new_exp         2   68[COMRAM] short 
  6933 ;;  aexp            1   75[COMRAM] unsigned char 
  6934 ;;  bexp            1   74[COMRAM] unsigned char 
  6935 ;;  sign            1   67[COMRAM] unsigned char 
  6936 ;; Return value:  Size  Location     Type
  6937 ;;                  4   51[COMRAM] unsigned char 
  6938 ;; Registers used:
  6939 ;;		wreg, status,2, status,0
  6940 ;; Tracked objects:
  6941 ;;		On entry : 0/0
  6942 ;;		On exit  : 0/0
  6943 ;;		Unchanged: 0/0
  6944 ;; Data sizes:     COMRAM   BANK0   BANK1   BANK2   BANK3   BANK4   BANK5   BANK6   BANK7   BANK8   BANK9  BANK10  BANK1
      +1  BANK12  BANK13  BANK14  BANK15
  6945 ;;      Params:         8       0       0       0       0       0       0       0       0       0       0       0       
      +0       0       0       0       0
  6946 ;;      Locals:        13       0       0       0       0       0       0       0       0       0       0       0       
      +0       0       0       0       0
  6947 ;;      Temps:          4       0       0       0       0       0       0       0       0       0       0       0       
      +0       0       0       0       0
  6948 ;;      Totals:        25       0       0       0       0       0       0       0       0       0       0       0       
      +0       0       0       0       0
  6949 ;;Total ram usage:       25 bytes
  6950 ;; Hardware stack levels used: 1
  6951 ;; Hardware stack levels required when called: 4
  6952 ;; This function calls:
  6953 ;;		Nothing
  6954 ;; This function is called by:
  6955 ;;		_set_pwm_period
  6956 ;;		_CCP_PWM_Set_Duty
  6957 ;;		_main
  6958 ;; This function uses a non-reentrant model
  6959 ;;
  6960                           
  6961                           	psect	text40
  6962   00195C                     __ptext40:
  6963                           	callstack 0
  6964   00195C                     ___fldiv:
  6965                           	callstack 23
  6966   00195C  5037               	movf	(___fldiv@b+3)^0,w,c
  6967   00195E  0B80               	andlw	128
  6968   001960  6E44               	movwf	___fldiv@sign^0,c
  6969   001962  5037               	movf	(___fldiv@b+3)^0,w,c
  6970   001964  2437               	addwf	(___fldiv@b+3)^0,w,c
  6971   001966  6E4B               	movwf	___fldiv@bexp^0,c
  6972   001968  AE36               	btfss	(___fldiv@b+2)^0,7,c
  6973   00196A  EFB9  F00C         	goto	u5821
  6974   00196E  EFBB  F00C         	goto	u5820
  6975   001972                     u5821:
  6976   001972  EFBC  F00C         	goto	l5295
  6977   001976                     u5820:
  6978   001976  804B               	bsf	___fldiv@bexp^0,0,c
  6979   001978                     l5295:
  6980   001978  504B               	movf	___fldiv@bexp^0,w,c
  6981   00197A  B4D8               	btfsc	status,2,c
  6982   00197C  EFC2  F00C         	goto	u5831
  6983   001980  EFC4  F00C         	goto	u5830
  6984   001984                     u5831:
  6985   001984  EFD9  F00C         	goto	l5305
  6986   001988                     u5830:
  6987   001988  284B               	incf	___fldiv@bexp^0,w,c
  6988   00198A  A4D8               	btfss	status,2,c
  6989   00198C  EFCA  F00C         	goto	u5841
  6990   001990  EFCC  F00C         	goto	u5840
  6991   001994                     u5841:
  6992   001994  EFD4  F00C         	goto	l5301
  6993   001998                     u5840:
  6994   001998  0E00               	movlw	0
  6995   00199A  6E34               	movwf	___fldiv@b^0,c
  6996   00199C  0E00               	movlw	0
  6997   00199E  6E35               	movwf	(___fldiv@b+1)^0,c
  6998   0019A0  0E00               	movlw	0
  6999   0019A2  6E36               	movwf	(___fldiv@b+2)^0,c
  7000   0019A4  0E00               	movlw	0
  7001   0019A6  6E37               	movwf	(___fldiv@b+3)^0,c
  7002   0019A8                     l5301:
  7003   0019A8  8E36               	bsf	(___fldiv@b+2)^0,7,c
  7004   0019AA  0E00               	movlw	0
  7005   0019AC  6E37               	movwf	(___fldiv@b+3)^0,c
  7006   0019AE  EFE1  F00C         	goto	l5307
  7007   0019B2                     l5305:
  7008   0019B2  0E00               	movlw	0
  7009   0019B4  6E34               	movwf	___fldiv@b^0,c
  7010   0019B6  0E00               	movlw	0
  7011   0019B8  6E35               	movwf	(___fldiv@b+1)^0,c
  7012   0019BA  0E00               	movlw	0
  7013   0019BC  6E36               	movwf	(___fldiv@b+2)^0,c
  7014   0019BE  0E00               	movlw	0
  7015   0019C0  6E37               	movwf	(___fldiv@b+3)^0,c
  7016   0019C2                     l5307:
  7017   0019C2  503B               	movf	(___fldiv@a+3)^0,w,c
  7018   0019C4  0B80               	andlw	128
  7019   0019C6  1A44               	xorwf	___fldiv@sign^0,f,c
  7020   0019C8  503B               	movf	(___fldiv@a+3)^0,w,c
  7021   0019CA  243B               	addwf	(___fldiv@a+3)^0,w,c
  7022   0019CC  6E4C               	movwf	___fldiv@aexp^0,c
  7023   0019CE  AE3A               	btfss	(___fldiv@a+2)^0,7,c
  7024   0019D0  EFEC  F00C         	goto	u5851
  7025   0019D4  EFEE  F00C         	goto	u5850
  7026   0019D8                     u5851:
  7027   0019D8  EFEF  F00C         	goto	l5315
  7028   0019DC                     u5850:
  7029   0019DC  804C               	bsf	___fldiv@aexp^0,0,c
  7030   0019DE                     l5315:
  7031   0019DE  504C               	movf	___fldiv@aexp^0,w,c
  7032   0019E0  B4D8               	btfsc	status,2,c
  7033   0019E2  EFF5  F00C         	goto	u5861
  7034   0019E6  EFF7  F00C         	goto	u5860
  7035   0019EA                     u5861:
  7036   0019EA  EF0C  F00D         	goto	l5325
  7037   0019EE                     u5860:
  7038   0019EE  284C               	incf	___fldiv@aexp^0,w,c
  7039   0019F0  A4D8               	btfss	status,2,c
  7040   0019F2  EFFD  F00C         	goto	u5871
  7041   0019F6  EFFF  F00C         	goto	u5870
  7042   0019FA                     u5871:
  7043   0019FA  EF07  F00D         	goto	l5321
  7044   0019FE                     u5870:
  7045   0019FE  0E00               	movlw	0
  7046   001A00  6E38               	movwf	___fldiv@a^0,c
  7047   001A02  0E00               	movlw	0
  7048   001A04  6E39               	movwf	(___fldiv@a+1)^0,c
  7049   001A06  0E00               	movlw	0
  7050   001A08  6E3A               	movwf	(___fldiv@a+2)^0,c
  7051   001A0A  0E00               	movlw	0
  7052   001A0C  6E3B               	movwf	(___fldiv@a+3)^0,c
  7053   001A0E                     l5321:
  7054   001A0E  8E3A               	bsf	(___fldiv@a+2)^0,7,c
  7055   001A10  0E00               	movlw	0
  7056   001A12  6E3B               	movwf	(___fldiv@a+3)^0,c
  7057   001A14  EF14  F00D         	goto	l5327
  7058   001A18                     l5325:
  7059   001A18  0E00               	movlw	0
  7060   001A1A  6E38               	movwf	___fldiv@a^0,c
  7061   001A1C  0E00               	movlw	0
  7062   001A1E  6E39               	movwf	(___fldiv@a+1)^0,c
  7063   001A20  0E00               	movlw	0
  7064   001A22  6E3A               	movwf	(___fldiv@a+2)^0,c
  7065   001A24  0E00               	movlw	0
  7066   001A26  6E3B               	movwf	(___fldiv@a+3)^0,c
  7067   001A28                     l5327:
  7068   001A28  5038               	movf	___fldiv@a^0,w,c
  7069   001A2A  1039               	iorwf	(___fldiv@a+1)^0,w,c
  7070   001A2C  103A               	iorwf	(___fldiv@a+2)^0,w,c
  7071   001A2E  103B               	iorwf	(___fldiv@a+3)^0,w,c
  7072   001A30  A4D8               	btfss	status,2,c
  7073   001A32  EF1D  F00D         	goto	u5881
  7074   001A36  EF1F  F00D         	goto	u5880
  7075   001A3A                     u5881:
  7076   001A3A  EF37  F00D         	goto	l5339
  7077   001A3E                     u5880:
  7078   001A3E  0E00               	movlw	0
  7079   001A40  6E34               	movwf	___fldiv@b^0,c
  7080   001A42  0E00               	movlw	0
  7081   001A44  6E35               	movwf	(___fldiv@b+1)^0,c
  7082   001A46  0E00               	movlw	0
  7083   001A48  6E36               	movwf	(___fldiv@b+2)^0,c
  7084   001A4A  0E00               	movlw	0
  7085   001A4C  6E37               	movwf	(___fldiv@b+3)^0,c
  7086   001A4E  0E80               	movlw	128
  7087   001A50  1236               	iorwf	(___fldiv@b+2)^0,f,c
  7088   001A52  0E7F               	movlw	127
  7089   001A54  1237               	iorwf	(___fldiv@b+3)^0,f,c
  7090   001A56                     l5333:
  7091   001A56  5044               	movf	___fldiv@sign^0,w,c
  7092   001A58  1237               	iorwf	(___fldiv@b+3)^0,f,c
  7093   001A5A  C034  F034         	movff	___fldiv@b,?___fldiv
  7094   001A5E  C035  F035         	movff	___fldiv@b+1,?___fldiv+1
  7095   001A62  C036  F036         	movff	___fldiv@b+2,?___fldiv+2
  7096   001A66  C037  F037         	movff	___fldiv@b+3,?___fldiv+3
  7097   001A6A  EF7A  F00E         	goto	l1243
  7098   001A6E                     l5339:
  7099   001A6E  504B               	movf	___fldiv@bexp^0,w,c
  7100   001A70  A4D8               	btfss	status,2,c
  7101   001A72  EF3D  F00D         	goto	u5891
  7102   001A76  EF3F  F00D         	goto	u5890
  7103   001A7A                     u5891:
  7104   001A7A  EF49  F00D         	goto	l5347
  7105   001A7E                     u5890:
  7106   001A7E  0E00               	movlw	0
  7107   001A80  6E34               	movwf	?___fldiv^0,c
  7108   001A82  0E00               	movlw	0
  7109   001A84  6E35               	movwf	(?___fldiv+1)^0,c
  7110   001A86  0E00               	movlw	0
  7111   001A88  6E36               	movwf	(?___fldiv+2)^0,c
  7112   001A8A  0E00               	movlw	0
  7113   001A8C  6E37               	movwf	(?___fldiv+3)^0,c
  7114   001A8E  EF7A  F00E         	goto	l1243
  7115   001A92                     l5347:
  7116   001A92  504C               	movf	___fldiv@aexp^0,w,c
  7117   001A94  C04B  F03C         	movff	___fldiv@bexp,??___fldiv
  7118   001A98  6A3D               	clrf	(??___fldiv+1)^0,c
  7119   001A9A  5E3C               	subwf	??___fldiv^0,f,c
  7120   001A9C  0E00               	movlw	0
  7121   001A9E  5A3D               	subwfb	(??___fldiv+1)^0,f,c
  7122   001AA0  0E7F               	movlw	127
  7123   001AA2  243C               	addwf	??___fldiv^0,w,c
  7124   001AA4  6E45               	movwf	___fldiv@new_exp^0,c
  7125   001AA6  0E00               	movlw	0
  7126   001AA8  203D               	addwfc	(??___fldiv+1)^0,w,c
  7127   001AAA  6E46               	movwf	(___fldiv@new_exp+1)^0,c
  7128   001AAC  C034  F040         	movff	___fldiv@b,___fldiv@rem
  7129   001AB0  C035  F041         	movff	___fldiv@b+1,___fldiv@rem+1
  7130   001AB4  C036  F042         	movff	___fldiv@b+2,___fldiv@rem+2
  7131   001AB8  C037  F043         	movff	___fldiv@b+3,___fldiv@rem+3
  7132   001ABC  0E00               	movlw	0
  7133   001ABE  6E34               	movwf	___fldiv@b^0,c
  7134   001AC0  0E00               	movlw	0
  7135   001AC2  6E35               	movwf	(___fldiv@b+1)^0,c
  7136   001AC4  0E00               	movlw	0
  7137   001AC6  6E36               	movwf	(___fldiv@b+2)^0,c
  7138   001AC8  0E00               	movlw	0
  7139   001ACA  6E37               	movwf	(___fldiv@b+3)^0,c
  7140   001ACC  0E00               	movlw	0
  7141   001ACE  6E47               	movwf	___fldiv@grs^0,c
  7142   001AD0  0E00               	movlw	0
  7143   001AD2  6E48               	movwf	(___fldiv@grs+1)^0,c
  7144   001AD4  0E00               	movlw	0
  7145   001AD6  6E49               	movwf	(___fldiv@grs+2)^0,c
  7146   001AD8  0E00               	movlw	0
  7147   001ADA  6E4A               	movwf	(___fldiv@grs+3)^0,c
  7148   001ADC  0E00               	movlw	0
  7149   001ADE  6E4C               	movwf	___fldiv@aexp^0,c
  7150   001AE0  EFAA  F00D         	goto	l1245
  7151   001AE4                     l5357:
  7152   001AE4  504C               	movf	___fldiv@aexp^0,w,c
  7153   001AE6  B4D8               	btfsc	status,2,c
  7154   001AE8  EF78  F00D         	goto	u5901
  7155   001AEC  EF7A  F00D         	goto	u5900
  7156   001AF0                     u5901:
  7157   001AF0  EF91  F00D         	goto	l5365
  7158   001AF4                     u5900:
  7159   001AF4  90D8               	bcf	status,0,c
  7160   001AF6  3640               	rlcf	___fldiv@rem^0,f,c
  7161   001AF8  3641               	rlcf	(___fldiv@rem+1)^0,f,c
  7162   001AFA  3642               	rlcf	(___fldiv@rem+2)^0,f,c
  7163   001AFC  3643               	rlcf	(___fldiv@rem+3)^0,f,c
  7164   001AFE  90D8               	bcf	status,0,c
  7165   001B00  3634               	rlcf	___fldiv@b^0,f,c
  7166   001B02  3635               	rlcf	(___fldiv@b+1)^0,f,c
  7167   001B04  3636               	rlcf	(___fldiv@b+2)^0,f,c
  7168   001B06  3637               	rlcf	(___fldiv@b+3)^0,f,c
  7169   001B08  AE4A               	btfss	(___fldiv@grs+3)^0,7,c
  7170   001B0A  EF89  F00D         	goto	u5911
  7171   001B0E  EF8B  F00D         	goto	u5910
  7172   001B12                     u5911:
  7173   001B12  EF8C  F00D         	goto	l1248
  7174   001B16                     u5910:
  7175   001B16  8034               	bsf	___fldiv@b^0,0,c
  7176   001B18                     l1248:
  7177   001B18  90D8               	bcf	status,0,c
  7178   001B1A  3647               	rlcf	___fldiv@grs^0,f,c
  7179   001B1C  3648               	rlcf	(___fldiv@grs+1)^0,f,c
  7180   001B1E  3649               	rlcf	(___fldiv@grs+2)^0,f,c
  7181   001B20  364A               	rlcf	(___fldiv@grs+3)^0,f,c
  7182   001B22                     l5365:
  7183   001B22  5038               	movf	___fldiv@a^0,w,c
  7184   001B24  5C40               	subwf	___fldiv@rem^0,w,c
  7185   001B26  5039               	movf	(___fldiv@a+1)^0,w,c
  7186   001B28  5841               	subwfb	(___fldiv@rem+1)^0,w,c
  7187   001B2A  503A               	movf	(___fldiv@a+2)^0,w,c
  7188   001B2C  5842               	subwfb	(___fldiv@rem+2)^0,w,c
  7189   001B2E  503B               	movf	(___fldiv@a+3)^0,w,c
  7190   001B30  5843               	subwfb	(___fldiv@rem+3)^0,w,c
  7191   001B32  A0D8               	btfss	status,0,c
  7192   001B34  EF9E  F00D         	goto	u5921
  7193   001B38  EFA0  F00D         	goto	u5920
  7194   001B3C                     u5921:
  7195   001B3C  EFA9  F00D         	goto	l5371
  7196   001B40                     u5920:
  7197   001B40  8C4A               	bsf	(___fldiv@grs+3)^0,6,c
  7198   001B42  5038               	movf	___fldiv@a^0,w,c
  7199   001B44  5E40               	subwf	___fldiv@rem^0,f,c
  7200   001B46  5039               	movf	(___fldiv@a+1)^0,w,c
  7201   001B48  5A41               	subwfb	(___fldiv@rem+1)^0,f,c
  7202   001B4A  503A               	movf	(___fldiv@a+2)^0,w,c
  7203   001B4C  5A42               	subwfb	(___fldiv@rem+2)^0,f,c
  7204   001B4E  503B               	movf	(___fldiv@a+3)^0,w,c
  7205   001B50  5A43               	subwfb	(___fldiv@rem+3)^0,f,c
  7206   001B52                     l5371:
  7207   001B52  2A4C               	incf	___fldiv@aexp^0,f,c
  7208   001B54                     l1245:
  7209   001B54  0E19               	movlw	25
  7210   001B56  644C               	cpfsgt	___fldiv@aexp^0,c
  7211   001B58  EFB0  F00D         	goto	u5931
  7212   001B5C  EFB2  F00D         	goto	u5930
  7213   001B60                     u5931:
  7214   001B60  EF72  F00D         	goto	l5357
  7215   001B64                     u5930:
  7216   001B64  5040               	movf	___fldiv@rem^0,w,c
  7217   001B66  1041               	iorwf	(___fldiv@rem+1)^0,w,c
  7218   001B68  1042               	iorwf	(___fldiv@rem+2)^0,w,c
  7219   001B6A  1043               	iorwf	(___fldiv@rem+3)^0,w,c
  7220   001B6C  B4D8               	btfsc	status,2,c
  7221   001B6E  EFBB  F00D         	goto	u5941
  7222   001B72  EFBD  F00D         	goto	u5940
  7223   001B76                     u5941:
  7224   001B76  EFD5  F00D         	goto	l5383
  7225   001B7A                     u5940:
  7226   001B7A  8047               	bsf	___fldiv@grs^0,0,c
  7227   001B7C  EFD5  F00D         	goto	l5383
  7228   001B80                     l5377:
  7229   001B80  90D8               	bcf	status,0,c
  7230   001B82  3634               	rlcf	___fldiv@b^0,f,c
  7231   001B84  3635               	rlcf	(___fldiv@b+1)^0,f,c
  7232   001B86  3636               	rlcf	(___fldiv@b+2)^0,f,c
  7233   001B88  3637               	rlcf	(___fldiv@b+3)^0,f,c
  7234   001B8A  AE4A               	btfss	(___fldiv@grs+3)^0,7,c
  7235   001B8C  EFCA  F00D         	goto	u5951
  7236   001B90  EFCC  F00D         	goto	u5950
  7237   001B94                     u5951:
  7238   001B94  EFCD  F00D         	goto	l1254
  7239   001B98                     u5950:
  7240   001B98  8034               	bsf	___fldiv@b^0,0,c
  7241   001B9A                     l1254:
  7242   001B9A  90D8               	bcf	status,0,c
  7243   001B9C  3647               	rlcf	___fldiv@grs^0,f,c
  7244   001B9E  3648               	rlcf	(___fldiv@grs+1)^0,f,c
  7245   001BA0  3649               	rlcf	(___fldiv@grs+2)^0,f,c
  7246   001BA2  364A               	rlcf	(___fldiv@grs+3)^0,f,c
  7247   001BA4  0645               	decf	___fldiv@new_exp^0,f,c
  7248   001BA6  A0D8               	btfss	status,0,c
  7249   001BA8  0646               	decf	(___fldiv@new_exp+1)^0,f,c
  7250   001BAA                     l5383:
  7251   001BAA  AE36               	btfss	(___fldiv@b+2)^0,7,c
  7252   001BAC  EFDA  F00D         	goto	u5961
  7253   001BB0  EFDC  F00D         	goto	u5960
  7254   001BB4                     u5961:
  7255   001BB4  EFC0  F00D         	goto	l5377
  7256   001BB8                     u5960:
  7257   001BB8  0E00               	movlw	0
  7258   001BBA  6E4C               	movwf	___fldiv@aexp^0,c
  7259   001BBC  AE4A               	btfss	(___fldiv@grs+3)^0,7,c
  7260   001BBE  EFE3  F00D         	goto	u5971
  7261   001BC2  EFE5  F00D         	goto	u5970
  7262   001BC6                     u5971:
  7263   001BC6  EF09  F00E         	goto	l1256
  7264   001BCA                     u5970:
  7265   001BCA  0EFF               	movlw	255
  7266   001BCC  1447               	andwf	___fldiv@grs^0,w,c
  7267   001BCE  6E3C               	movwf	??___fldiv^0,c
  7268   001BD0  0EFF               	movlw	255
  7269   001BD2  1448               	andwf	(___fldiv@grs+1)^0,w,c
  7270   001BD4  6E3D               	movwf	(??___fldiv+1)^0,c
  7271   001BD6  0EFF               	movlw	255
  7272   001BD8  1449               	andwf	(___fldiv@grs+2)^0,w,c
  7273   001BDA  6E3E               	movwf	(??___fldiv+2)^0,c
  7274   001BDC  0E7F               	movlw	127
  7275   001BDE  144A               	andwf	(___fldiv@grs+3)^0,w,c
  7276   001BE0  6E3F               	movwf	(??___fldiv+3)^0,c
  7277   001BE2  503C               	movf	??___fldiv^0,w,c
  7278   001BE4  103D               	iorwf	(??___fldiv+1)^0,w,c
  7279   001BE6  103E               	iorwf	(??___fldiv+2)^0,w,c
  7280   001BE8  103F               	iorwf	(??___fldiv+3)^0,w,c
  7281   001BEA  B4D8               	btfsc	status,2,c
  7282   001BEC  EFFA  F00D         	goto	u5981
  7283   001BF0  EFFC  F00D         	goto	u5980
  7284   001BF4                     u5981:
  7285   001BF4  EF00  F00E         	goto	l1257
  7286   001BF8                     u5980:
  7287   001BF8                     l5391:
  7288   001BF8  0E01               	movlw	1
  7289   001BFA  6E4C               	movwf	___fldiv@aexp^0,c
  7290   001BFC  EF09  F00E         	goto	l1256
  7291   001C00                     l1257:
  7292   001C00  A034               	btfss	___fldiv@b^0,0,c
  7293   001C02  EF05  F00E         	goto	u5991
  7294   001C06  EF07  F00E         	goto	u5990
  7295   001C0A                     u5991:
  7296   001C0A  EF09  F00E         	goto	l1256
  7297   001C0E                     u5990:
  7298   001C0E  EFFC  F00D         	goto	l5391
  7299   001C12                     l1256:
  7300   001C12  504C               	movf	___fldiv@aexp^0,w,c
  7301   001C14  B4D8               	btfsc	status,2,c
  7302   001C16  EF0F  F00E         	goto	u6001
  7303   001C1A  EF11  F00E         	goto	u6000
  7304   001C1E                     u6001:
  7305   001C1E  EF35  F00E         	goto	l5403
  7306   001C22                     u6000:
  7307   001C22  0E01               	movlw	1
  7308   001C24  2634               	addwf	___fldiv@b^0,f,c
  7309   001C26  0E00               	movlw	0
  7310   001C28  2235               	addwfc	(___fldiv@b+1)^0,f,c
  7311   001C2A  2236               	addwfc	(___fldiv@b+2)^0,f,c
  7312   001C2C  2237               	addwfc	(___fldiv@b+3)^0,f,c
  7313   001C2E  A037               	btfss	(___fldiv@b+3)^0,0,c
  7314   001C30  EF1C  F00E         	goto	u6011
  7315   001C34  EF1E  F00E         	goto	u6010
  7316   001C38                     u6011:
  7317   001C38  EF35  F00E         	goto	l5403
  7318   001C3C                     u6010:
  7319   001C3C  C034  F03C         	movff	___fldiv@b,??___fldiv
  7320   001C40  C035  F03D         	movff	___fldiv@b+1,??___fldiv+1
  7321   001C44  C036  F03E         	movff	___fldiv@b+2,??___fldiv+2
  7322   001C48  C037  F03F         	movff	___fldiv@b+3,??___fldiv+3
  7323   001C4C  343F               	rlcf	(??___fldiv+3)^0,w,c
  7324   001C4E  323F               	rrcf	(??___fldiv+3)^0,f,c
  7325   001C50  323E               	rrcf	(??___fldiv+2)^0,f,c
  7326   001C52  323D               	rrcf	(??___fldiv+1)^0,f,c
  7327   001C54  323C               	rrcf	??___fldiv^0,f,c
  7328   001C56  C03C  F034         	movff	??___fldiv,___fldiv@b
  7329   001C5A  C03D  F035         	movff	??___fldiv+1,___fldiv@b+1
  7330   001C5E  C03E  F036         	movff	??___fldiv+2,___fldiv@b+2
  7331   001C62  C03F  F037         	movff	??___fldiv+3,___fldiv@b+3
  7332   001C66  4A45               	infsnz	___fldiv@new_exp^0,f,c
  7333   001C68  2A46               	incf	(___fldiv@new_exp+1)^0,f,c
  7334   001C6A                     l5403:
  7335   001C6A  BE46               	btfsc	(___fldiv@new_exp+1)^0,7,c
  7336   001C6C  EF40  F00E         	goto	u6021
  7337   001C70  5046               	movf	(___fldiv@new_exp+1)^0,w,c
  7338   001C72  E108               	bnz	u6020
  7339   001C74  2845               	incf	___fldiv@new_exp^0,w,c
  7340   001C76  A0D8               	btfss	status,0,c
  7341   001C78  EF40  F00E         	goto	u6021
  7342   001C7C  EF42  F00E         	goto	u6020
  7343   001C80                     u6021:
  7344   001C80  EF4D  F00E         	goto	l5407
  7345   001C84                     u6020:
  7346   001C84  0E00               	movlw	0
  7347   001C86  6E46               	movwf	(___fldiv@new_exp+1)^0,c
  7348   001C88  6845               	setf	___fldiv@new_exp^0,c
  7349   001C8A  0E00               	movlw	0
  7350   001C8C  6E34               	movwf	___fldiv@b^0,c
  7351   001C8E  0E00               	movlw	0
  7352   001C90  6E35               	movwf	(___fldiv@b+1)^0,c
  7353   001C92  0E00               	movlw	0
  7354   001C94  6E36               	movwf	(___fldiv@b+2)^0,c
  7355   001C96  0E00               	movlw	0
  7356   001C98  6E37               	movwf	(___fldiv@b+3)^0,c
  7357   001C9A                     l5407:
  7358   001C9A  BE46               	btfsc	(___fldiv@new_exp+1)^0,7,c
  7359   001C9C  EF5A  F00E         	goto	u6030
  7360   001CA0  5046               	movf	(___fldiv@new_exp+1)^0,w,c
  7361   001CA2  E106               	bnz	u6031
  7362   001CA4  0445               	decf	___fldiv@new_exp^0,w,c
  7363   001CA6  B0D8               	btfsc	status,0,c
  7364   001CA8  EF58  F00E         	goto	u6031
  7365   001CAC  EF5A  F00E         	goto	u6030
  7366   001CB0                     u6031:
  7367   001CB0  EF68  F00E         	goto	l5411
  7368   001CB4                     u6030:
  7369   001CB4  0E00               	movlw	0
  7370   001CB6  6E46               	movwf	(___fldiv@new_exp+1)^0,c
  7371   001CB8  0E00               	movlw	0
  7372   001CBA  6E45               	movwf	___fldiv@new_exp^0,c
  7373   001CBC  0E00               	movlw	0
  7374   001CBE  6E34               	movwf	___fldiv@b^0,c
  7375   001CC0  0E00               	movlw	0
  7376   001CC2  6E35               	movwf	(___fldiv@b+1)^0,c
  7377   001CC4  0E00               	movlw	0
  7378   001CC6  6E36               	movwf	(___fldiv@b+2)^0,c
  7379   001CC8  0E00               	movlw	0
  7380   001CCA  6E37               	movwf	(___fldiv@b+3)^0,c
  7381   001CCC  0E00               	movlw	0
  7382   001CCE  6E44               	movwf	___fldiv@sign^0,c
  7383   001CD0                     l5411:
  7384   001CD0  C045  F04B         	movff	___fldiv@new_exp,___fldiv@bexp
  7385   001CD4  A04B               	btfss	___fldiv@bexp^0,0,c
  7386   001CD6  EF6F  F00E         	goto	u6041
  7387   001CDA  EF71  F00E         	goto	u6040
  7388   001CDE                     u6041:
  7389   001CDE  EF74  F00E         	goto	l5417
  7390   001CE2                     u6040:
  7391   001CE2  8E36               	bsf	(___fldiv@b+2)^0,7,c
  7392   001CE4  EF75  F00E         	goto	l5419
  7393   001CE8                     l5417:
  7394   001CE8  9E36               	bcf	(___fldiv@b+2)^0,7,c
  7395   001CEA                     l5419:
  7396   001CEA  90D8               	bcf	status,0,c
  7397   001CEC  304B               	rrcf	___fldiv@bexp^0,w,c
  7398   001CEE  6E37               	movwf	(___fldiv@b+3)^0,c
  7399   001CF0  EF2B  F00D         	goto	l5333
  7400   001CF4                     l1243:
  7401   001CF4  0012               	return		;funcret
  7402   001CF6                     __end_of___fldiv:
  7403                           	callstack 0
  7404                           
  7405 ;; *************** function ___fladd *****************
  7406 ;; Defined at:
  7407 ;;		line 10 in file "C:\Program Files\Microchip\xc8\v2.41\pic\sources\c99\common\sprcadd.c"
  7408 ;; Parameters:    Size  Location     Type
  7409 ;;  b               4   76[COMRAM] unsigned char 
  7410 ;;  a               4   80[COMRAM] unsigned char 
  7411 ;; Auto vars:     Size  Location     Type
  7412 ;;  grs             1   91[COMRAM] unsigned char 
  7413 ;;  bexp            1   90[COMRAM] unsigned char 
  7414 ;;  aexp            1   89[COMRAM] unsigned char 
  7415 ;;  signs           1   88[COMRAM] unsigned char 
  7416 ;; Return value:  Size  Location     Type
  7417 ;;                  4   76[COMRAM] unsigned char 
  7418 ;; Registers used:
  7419 ;;		wreg, status,2, status,0
  7420 ;; Tracked objects:
  7421 ;;		On entry : 0/0
  7422 ;;		On exit  : 0/0
  7423 ;;		Unchanged: 0/0
  7424 ;; Data sizes:     COMRAM   BANK0   BANK1   BANK2   BANK3   BANK4   BANK5   BANK6   BANK7   BANK8   BANK9  BANK10  BANK1
      +1  BANK12  BANK13  BANK14  BANK15
  7425 ;;      Params:         8       0       0       0       0       0       0       0       0       0       0       0       
      +0       0       0       0       0
  7426 ;;      Locals:         4       0       0       0       0       0       0       0       0       0       0       0       
      +0       0       0       0       0
  7427 ;;      Temps:          4       0       0       0       0       0       0       0       0       0       0       0       
      +0       0       0       0       0
  7428 ;;      Totals:        16       0       0       0       0       0       0       0       0       0       0       0       
      +0       0       0       0       0
  7429 ;;Total ram usage:       16 bytes
  7430 ;; Hardware stack levels used: 1
  7431 ;; Hardware stack levels required when called: 4
  7432 ;; This function calls:
  7433 ;;		Nothing
  7434 ;; This function is called by:
  7435 ;;		_set_pwm_period
  7436 ;;		_CCP_PWM_Set_Duty
  7437 ;; This function uses a non-reentrant model
  7438 ;;
  7439                           
  7440                           	psect	text41
  7441   001072                     __ptext41:
  7442                           	callstack 0
  7443   001072                     ___fladd:
  7444                           	callstack 23
  7445   001072  5050               	movf	(___fladd@b+3)^0,w,c
  7446   001074  0B80               	andlw	128
  7447   001076  6E59               	movwf	___fladd@signs^0,c
  7448   001078  5050               	movf	(___fladd@b+3)^0,w,c
  7449   00107A  2450               	addwf	(___fladd@b+3)^0,w,c
  7450   00107C  6E5B               	movwf	___fladd@bexp^0,c
  7451   00107E  AE4F               	btfss	(___fladd@b+2)^0,7,c
  7452   001080  EF44  F008         	goto	u5431
  7453   001084  EF46  F008         	goto	u5430
  7454   001088                     u5431:
  7455   001088  EF47  F008         	goto	l5093
  7456   00108C                     u5430:
  7457   00108C  805B               	bsf	___fladd@bexp^0,0,c
  7458   00108E                     l5093:
  7459   00108E  505B               	movf	___fladd@bexp^0,w,c
  7460   001090  B4D8               	btfsc	status,2,c
  7461   001092  EF4D  F008         	goto	u5441
  7462   001096  EF4F  F008         	goto	u5440
  7463   00109A                     u5441:
  7464   00109A  EF64  F008         	goto	l5103
  7465   00109E                     u5440:
  7466   00109E  285B               	incf	___fladd@bexp^0,w,c
  7467   0010A0  A4D8               	btfss	status,2,c
  7468   0010A2  EF55  F008         	goto	u5451
  7469   0010A6  EF57  F008         	goto	u5450
  7470   0010AA                     u5451:
  7471   0010AA  EF5F  F008         	goto	l5099
  7472   0010AE                     u5450:
  7473   0010AE  0E00               	movlw	0
  7474   0010B0  6E4D               	movwf	___fladd@b^0,c
  7475   0010B2  0E00               	movlw	0
  7476   0010B4  6E4E               	movwf	(___fladd@b+1)^0,c
  7477   0010B6  0E00               	movlw	0
  7478   0010B8  6E4F               	movwf	(___fladd@b+2)^0,c
  7479   0010BA  0E00               	movlw	0
  7480   0010BC  6E50               	movwf	(___fladd@b+3)^0,c
  7481   0010BE                     l5099:
  7482   0010BE  8E4F               	bsf	(___fladd@b+2)^0,7,c
  7483   0010C0  0E00               	movlw	0
  7484   0010C2  6E50               	movwf	(___fladd@b+3)^0,c
  7485   0010C4  EF6C  F008         	goto	l5105
  7486   0010C8                     l5103:
  7487   0010C8  0E00               	movlw	0
  7488   0010CA  6E4D               	movwf	___fladd@b^0,c
  7489   0010CC  0E00               	movlw	0
  7490   0010CE  6E4E               	movwf	(___fladd@b+1)^0,c
  7491   0010D0  0E00               	movlw	0
  7492   0010D2  6E4F               	movwf	(___fladd@b+2)^0,c
  7493   0010D4  0E00               	movlw	0
  7494   0010D6  6E50               	movwf	(___fladd@b+3)^0,c
  7495   0010D8                     l5105:
  7496   0010D8  5054               	movf	(___fladd@a+3)^0,w,c
  7497   0010DA  0B80               	andlw	128
  7498   0010DC  6E5A               	movwf	___fladd@aexp^0,c
  7499   0010DE  5059               	movf	___fladd@signs^0,w,c
  7500   0010E0  185A               	xorwf	___fladd@aexp^0,w,c
  7501   0010E2  B4D8               	btfsc	status,2,c
  7502   0010E4  EF76  F008         	goto	u5461
  7503   0010E8  EF78  F008         	goto	u5460
  7504   0010EC                     u5461:
  7505   0010EC  EF79  F008         	goto	l5111
  7506   0010F0                     u5460:
  7507   0010F0  8C59               	bsf	___fladd@signs^0,6,c
  7508   0010F2                     l5111:
  7509   0010F2  5054               	movf	(___fladd@a+3)^0,w,c
  7510   0010F4  2454               	addwf	(___fladd@a+3)^0,w,c
  7511   0010F6  6E5A               	movwf	___fladd@aexp^0,c
  7512   0010F8  AE53               	btfss	(___fladd@a+2)^0,7,c
  7513   0010FA  EF81  F008         	goto	u5471
  7514   0010FE  EF83  F008         	goto	u5470
  7515   001102                     u5471:
  7516   001102  EF84  F008         	goto	l5117
  7517   001106                     u5470:
  7518   001106  805A               	bsf	___fladd@aexp^0,0,c
  7519   001108                     l5117:
  7520   001108  505A               	movf	___fladd@aexp^0,w,c
  7521   00110A  B4D8               	btfsc	status,2,c
  7522   00110C  EF8A  F008         	goto	u5481
  7523   001110  EF8C  F008         	goto	u5480
  7524   001114                     u5481:
  7525   001114  EFA1  F008         	goto	l5127
  7526   001118                     u5480:
  7527   001118  285A               	incf	___fladd@aexp^0,w,c
  7528   00111A  A4D8               	btfss	status,2,c
  7529   00111C  EF92  F008         	goto	u5491
  7530   001120  EF94  F008         	goto	u5490
  7531   001124                     u5491:
  7532   001124  EF9C  F008         	goto	l5123
  7533   001128                     u5490:
  7534   001128  0E00               	movlw	0
  7535   00112A  6E51               	movwf	___fladd@a^0,c
  7536   00112C  0E00               	movlw	0
  7537   00112E  6E52               	movwf	(___fladd@a+1)^0,c
  7538   001130  0E00               	movlw	0
  7539   001132  6E53               	movwf	(___fladd@a+2)^0,c
  7540   001134  0E00               	movlw	0
  7541   001136  6E54               	movwf	(___fladd@a+3)^0,c
  7542   001138                     l5123:
  7543   001138  8E53               	bsf	(___fladd@a+2)^0,7,c
  7544   00113A  0E00               	movlw	0
  7545   00113C  6E54               	movwf	(___fladd@a+3)^0,c
  7546   00113E  EFA9  F008         	goto	l5129
  7547   001142                     l5127:
  7548   001142  0E00               	movlw	0
  7549   001144  6E51               	movwf	___fladd@a^0,c
  7550   001146  0E00               	movlw	0
  7551   001148  6E52               	movwf	(___fladd@a+1)^0,c
  7552   00114A  0E00               	movlw	0
  7553   00114C  6E53               	movwf	(___fladd@a+2)^0,c
  7554   00114E  0E00               	movlw	0
  7555   001150  6E54               	movwf	(___fladd@a+3)^0,c
  7556   001152                     l5129:
  7557   001152  505B               	movf	___fladd@bexp^0,w,c
  7558   001154  5C5A               	subwf	___fladd@aexp^0,w,c
  7559   001156  B0D8               	btfsc	status,0,c
  7560   001158  EFB0  F008         	goto	u5501
  7561   00115C  EFB2  F008         	goto	u5500
  7562   001160                     u5501:
  7563   001160  EFD9  F008         	goto	l5165
  7564   001164                     u5500:
  7565   001164  AC59               	btfss	___fladd@signs^0,6,c
  7566   001166  EFB7  F008         	goto	u5511
  7567   00116A  EFB9  F008         	goto	u5510
  7568   00116E                     u5511:
  7569   00116E  EFBB  F008         	goto	l5135
  7570   001172                     u5510:
  7571   001172  0E80               	movlw	128
  7572   001174  1A59               	xorwf	___fladd@signs^0,f,c
  7573   001176                     l5135:
  7574   001176  C05B  F05C         	movff	___fladd@bexp,___fladd@grs
  7575   00117A  C05A  F05B         	movff	___fladd@aexp,___fladd@bexp
  7576   00117E  C05C  F05A         	movff	___fladd@grs,___fladd@aexp
  7577   001182  C04D  F05C         	movff	___fladd@b,___fladd@grs
  7578   001186  C051  F04D         	movff	___fladd@a,___fladd@b
  7579   00118A  C05C  F051         	movff	___fladd@grs,___fladd@a
  7580   00118E  C04E  F05C         	movff	___fladd@b+1,___fladd@grs
  7581   001192  C052  F04E         	movff	___fladd@a+1,___fladd@b+1
  7582   001196  C05C  F052         	movff	___fladd@grs,___fladd@a+1
  7583   00119A  C04F  F05C         	movff	___fladd@b+2,___fladd@grs
  7584   00119E  C053  F04F         	movff	___fladd@a+2,___fladd@b+2
  7585   0011A2  C05C  F053         	movff	___fladd@grs,___fladd@a+2
  7586   0011A6  C050  F05C         	movff	___fladd@b+3,___fladd@grs
  7587   0011AA  C054  F050         	movff	___fladd@a+3,___fladd@b+3
  7588   0011AE  C05C  F054         	movff	___fladd@grs,___fladd@a+3
  7589   0011B2                     l5165:
  7590   0011B2  0E00               	movlw	0
  7591   0011B4  6E5C               	movwf	___fladd@grs^0,c
  7592   0011B6  505B               	movf	___fladd@bexp^0,w,c
  7593   0011B8  C05A  F055         	movff	___fladd@aexp,??___fladd
  7594   0011BC  6A56               	clrf	(??___fladd+1)^0,c
  7595   0011BE  5E55               	subwf	??___fladd^0,f,c
  7596   0011C0  0E00               	movlw	0
  7597   0011C2  5A56               	subwfb	(??___fladd+1)^0,f,c
  7598   0011C4  BE56               	btfsc	(??___fladd+1)^0,7,c
  7599   0011C6  EFEE  F008         	goto	u5521
  7600   0011CA  5056               	movf	(??___fladd+1)^0,w,c
  7601   0011CC  E109               	bnz	u5520
  7602   0011CE  0E1A               	movlw	26
  7603   0011D0  5C55               	subwf	??___fladd^0,w,c
  7604   0011D2  A0D8               	btfss	status,0,c
  7605   0011D4  EFEE  F008         	goto	u5521
  7606   0011D8  EFF0  F008         	goto	u5520
  7607   0011DC                     u5521:
  7608   0011DC  EF27  F009         	goto	l1190
  7609   0011E0                     u5520:
  7610   0011E0  504D               	movf	___fladd@b^0,w,c
  7611   0011E2  104E               	iorwf	(___fladd@b+1)^0,w,c
  7612   0011E4  104F               	iorwf	(___fladd@b+2)^0,w,c
  7613   0011E6  1050               	iorwf	(___fladd@b+3)^0,w,c
  7614   0011E8  A4D8               	btfss	status,2,c
  7615   0011EA  EFF9  F008         	goto	u5531
  7616   0011EE  EFFC  F008         	goto	u5530
  7617   0011F2                     u5531:
  7618   0011F2  0E01               	movlw	1
  7619   0011F4  EFFD  F008         	goto	u5540
  7620   0011F8                     u5530:
  7621   0011F8  0E00               	movlw	0
  7622   0011FA                     u5540:
  7623   0011FA  6E5C               	movwf	___fladd@grs^0,c
  7624   0011FC  0E00               	movlw	0
  7625   0011FE  6E4D               	movwf	___fladd@b^0,c
  7626   001200  0E00               	movlw	0
  7627   001202  6E4E               	movwf	(___fladd@b+1)^0,c
  7628   001204  0E00               	movlw	0
  7629   001206  6E4F               	movwf	(___fladd@b+2)^0,c
  7630   001208  0E00               	movlw	0
  7631   00120A  6E50               	movwf	(___fladd@b+3)^0,c
  7632   00120C  C05A  F05B         	movff	___fladd@aexp,___fladd@bexp
  7633   001210  EF30  F009         	goto	l1189
  7634   001214                     l1191:
  7635   001214  A05C               	btfss	___fladd@grs^0,0,c
  7636   001216  EF0F  F009         	goto	u5551
  7637   00121A  EF11  F009         	goto	u5550
  7638   00121E                     u5551:
  7639   00121E  EF17  F009         	goto	l5177
  7640   001222                     u5550:
  7641   001222  90D8               	bcf	status,0,c
  7642   001224  305C               	rrcf	___fladd@grs^0,w,c
  7643   001226  0901               	iorlw	1
  7644   001228  6E5C               	movwf	___fladd@grs^0,c
  7645   00122A  EF19  F009         	goto	l5179
  7646   00122E                     l5177:
  7647   00122E  90D8               	bcf	status,0,c
  7648   001230  325C               	rrcf	___fladd@grs^0,f,c
  7649   001232                     l5179:
  7650   001232  A04D               	btfss	___fladd@b^0,0,c
  7651   001234  EF1E  F009         	goto	u5561
  7652   001238  EF20  F009         	goto	u5560
  7653   00123C                     u5561:
  7654   00123C  EF21  F009         	goto	l5183
  7655   001240                     u5560:
  7656   001240  8E5C               	bsf	___fladd@grs^0,7,c
  7657   001242                     l5183:
  7658   001242  3450               	rlcf	(___fladd@b+3)^0,w,c
  7659   001244  3250               	rrcf	(___fladd@b+3)^0,f,c
  7660   001246  324F               	rrcf	(___fladd@b+2)^0,f,c
  7661   001248  324E               	rrcf	(___fladd@b+1)^0,f,c
  7662   00124A  324D               	rrcf	___fladd@b^0,f,c
  7663   00124C  2A5B               	incf	___fladd@bexp^0,f,c
  7664   00124E                     l1190:
  7665   00124E  505A               	movf	___fladd@aexp^0,w,c
  7666   001250  5C5B               	subwf	___fladd@bexp^0,w,c
  7667   001252  A0D8               	btfss	status,0,c
  7668   001254  EF2E  F009         	goto	u5571
  7669   001258  EF30  F009         	goto	u5570
  7670   00125C                     u5571:
  7671   00125C  EF0A  F009         	goto	l1191
  7672   001260                     u5570:
  7673   001260                     l1189:
  7674   001260  BC59               	btfsc	___fladd@signs^0,6,c
  7675   001262  EF35  F009         	goto	u5581
  7676   001266  EF37  F009         	goto	u5580
  7677   00126A                     u5581:
  7678   00126A  EF77  F009         	goto	l5211
  7679   00126E                     u5580:
  7680   00126E  505B               	movf	___fladd@bexp^0,w,c
  7681   001270  A4D8               	btfss	status,2,c
  7682   001272  EF3D  F009         	goto	u5591
  7683   001276  EF3F  F009         	goto	u5590
  7684   00127A                     u5591:
  7685   00127A  EF49  F009         	goto	l5193
  7686   00127E                     u5590:
  7687   00127E  0E00               	movlw	0
  7688   001280  6E4D               	movwf	?___fladd^0,c
  7689   001282  0E00               	movlw	0
  7690   001284  6E4E               	movwf	(?___fladd+1)^0,c
  7691   001286  0E00               	movlw	0
  7692   001288  6E4F               	movwf	(?___fladd+2)^0,c
  7693   00128A  0E00               	movlw	0
  7694   00128C  6E50               	movwf	(?___fladd+3)^0,c
  7695   00128E  EF98  F00A         	goto	l1198
  7696   001292                     l5193:
  7697   001292  5051               	movf	___fladd@a^0,w,c
  7698   001294  264D               	addwf	___fladd@b^0,f,c
  7699   001296  5052               	movf	(___fladd@a+1)^0,w,c
  7700   001298  224E               	addwfc	(___fladd@b+1)^0,f,c
  7701   00129A  5053               	movf	(___fladd@a+2)^0,w,c
  7702   00129C  224F               	addwfc	(___fladd@b+2)^0,f,c
  7703   00129E  5054               	movf	(___fladd@a+3)^0,w,c
  7704   0012A0  2250               	addwfc	(___fladd@b+3)^0,f,c
  7705   0012A2  A050               	btfss	(___fladd@b+3)^0,0,c
  7706   0012A4  EF56  F009         	goto	u5601
  7707   0012A8  EF58  F009         	goto	u5600
  7708   0012AC                     u5601:
  7709   0012AC  EF04  F00A         	goto	l5247
  7710   0012B0                     u5600:
  7711   0012B0  A05C               	btfss	___fladd@grs^0,0,c
  7712   0012B2  EF5D  F009         	goto	u5611
  7713   0012B6  EF5F  F009         	goto	u5610
  7714   0012BA                     u5611:
  7715   0012BA  EF65  F009         	goto	l5201
  7716   0012BE                     u5610:
  7717   0012BE  90D8               	bcf	status,0,c
  7718   0012C0  305C               	rrcf	___fladd@grs^0,w,c
  7719   0012C2  0901               	iorlw	1
  7720   0012C4  6E5C               	movwf	___fladd@grs^0,c
  7721   0012C6  EF67  F009         	goto	l5203
  7722   0012CA                     l5201:
  7723   0012CA  90D8               	bcf	status,0,c
  7724   0012CC  325C               	rrcf	___fladd@grs^0,f,c
  7725   0012CE                     l5203:
  7726   0012CE  A04D               	btfss	___fladd@b^0,0,c
  7727   0012D0  EF6C  F009         	goto	u5621
  7728   0012D4  EF6E  F009         	goto	u5620
  7729   0012D8                     u5621:
  7730   0012D8  EF6F  F009         	goto	l5207
  7731   0012DC                     u5620:
  7732   0012DC  8E5C               	bsf	___fladd@grs^0,7,c
  7733   0012DE                     l5207:
  7734   0012DE  3450               	rlcf	(___fladd@b+3)^0,w,c
  7735   0012E0  3250               	rrcf	(___fladd@b+3)^0,f,c
  7736   0012E2  324F               	rrcf	(___fladd@b+2)^0,f,c
  7737   0012E4  324E               	rrcf	(___fladd@b+1)^0,f,c
  7738   0012E6  324D               	rrcf	___fladd@b^0,f,c
  7739   0012E8  2A5B               	incf	___fladd@bexp^0,f,c
  7740   0012EA  EF04  F00A         	goto	l5247
  7741   0012EE                     l5211:
  7742   0012EE  5051               	movf	___fladd@a^0,w,c
  7743   0012F0  5C4D               	subwf	___fladd@b^0,w,c
  7744   0012F2  5052               	movf	(___fladd@a+1)^0,w,c
  7745   0012F4  584E               	subwfb	(___fladd@b+1)^0,w,c
  7746   0012F6  5053               	movf	(___fladd@a+2)^0,w,c
  7747   0012F8  584F               	subwfb	(___fladd@b+2)^0,w,c
  7748   0012FA  5050               	movf	(___fladd@b+3)^0,w,c
  7749   0012FC  0A80               	xorlw	128
  7750   0012FE  6E55               	movwf	??___fladd^0,c
  7751   001300  5054               	movf	(___fladd@a+3)^0,w,c
  7752   001302  0A80               	xorlw	128
  7753   001304  5855               	subwfb	??___fladd^0,w,c
  7754   001306  B0D8               	btfsc	status,0,c
  7755   001308  EF88  F009         	goto	u5631
  7756   00130C  EF8A  F009         	goto	u5630
  7757   001310                     u5631:
  7758   001310  EFB5  F009         	goto	l5221
  7759   001314                     u5630:
  7760   001314  504D               	movf	___fladd@b^0,w,c
  7761   001316  5C51               	subwf	___fladd@a^0,w,c
  7762   001318  6E55               	movwf	??___fladd^0,c
  7763   00131A  504E               	movf	(___fladd@b+1)^0,w,c
  7764   00131C  5852               	subwfb	(___fladd@a+1)^0,w,c
  7765   00131E  6E56               	movwf	(??___fladd+1)^0,c
  7766   001320  504F               	movf	(___fladd@b+2)^0,w,c
  7767   001322  5853               	subwfb	(___fladd@a+2)^0,w,c
  7768   001324  6E57               	movwf	(??___fladd+2)^0,c
  7769   001326  5050               	movf	(___fladd@b+3)^0,w,c
  7770   001328  5854               	subwfb	(___fladd@a+3)^0,w,c
  7771   00132A  6E58               	movwf	(??___fladd+3)^0,c
  7772   00132C  0EFF               	movlw	255
  7773   00132E  2455               	addwf	??___fladd^0,w,c
  7774   001330  6E4D               	movwf	___fladd@b^0,c
  7775   001332  0EFF               	movlw	255
  7776   001334  2056               	addwfc	(??___fladd+1)^0,w,c
  7777   001336  6E4E               	movwf	(___fladd@b+1)^0,c
  7778   001338  0EFF               	movlw	255
  7779   00133A  2057               	addwfc	(??___fladd+2)^0,w,c
  7780   00133C  6E4F               	movwf	(___fladd@b+2)^0,c
  7781   00133E  0EFF               	movlw	255
  7782   001340  2058               	addwfc	(??___fladd+3)^0,w,c
  7783   001342  6E50               	movwf	(___fladd@b+3)^0,c
  7784   001344  0E80               	movlw	128
  7785   001346  1A59               	xorwf	___fladd@signs^0,f,c
  7786   001348  6C5C               	negf	___fladd@grs^0,c
  7787   00134A  505C               	movf	___fladd@grs^0,w,c
  7788   00134C  A4D8               	btfss	status,2,c
  7789   00134E  EFAB  F009         	goto	u5641
  7790   001352  EFAD  F009         	goto	u5640
  7791   001356                     u5641:
  7792   001356  EFBD  F009         	goto	l1206
  7793   00135A                     u5640:
  7794   00135A  0E01               	movlw	1
  7795   00135C  264D               	addwf	___fladd@b^0,f,c
  7796   00135E  0E00               	movlw	0
  7797   001360  224E               	addwfc	(___fladd@b+1)^0,f,c
  7798   001362  224F               	addwfc	(___fladd@b+2)^0,f,c
  7799   001364  2250               	addwfc	(___fladd@b+3)^0,f,c
  7800   001366  EFBD  F009         	goto	l1206
  7801   00136A                     l5221:
  7802   00136A  5051               	movf	___fladd@a^0,w,c
  7803   00136C  5E4D               	subwf	___fladd@b^0,f,c
  7804   00136E  5052               	movf	(___fladd@a+1)^0,w,c
  7805   001370  5A4E               	subwfb	(___fladd@b+1)^0,f,c
  7806   001372  5053               	movf	(___fladd@a+2)^0,w,c
  7807   001374  5A4F               	subwfb	(___fladd@b+2)^0,f,c
  7808   001376  5054               	movf	(___fladd@a+3)^0,w,c
  7809   001378  5A50               	subwfb	(___fladd@b+3)^0,f,c
  7810   00137A                     l1206:
  7811   00137A  504D               	movf	___fladd@b^0,w,c
  7812   00137C  104E               	iorwf	(___fladd@b+1)^0,w,c
  7813   00137E  104F               	iorwf	(___fladd@b+2)^0,w,c
  7814   001380  1050               	iorwf	(___fladd@b+3)^0,w,c
  7815   001382  A4D8               	btfss	status,2,c
  7816   001384  EFC6  F009         	goto	u5651
  7817   001388  EFC8  F009         	goto	u5650
  7818   00138C                     u5651:
  7819   00138C  EFFD  F009         	goto	l5245
  7820   001390                     u5650:
  7821   001390  505C               	movf	___fladd@grs^0,w,c
  7822   001392  A4D8               	btfss	status,2,c
  7823   001394  EFCE  F009         	goto	u5661
  7824   001398  EFD0  F009         	goto	u5660
  7825   00139C                     u5661:
  7826   00139C  EFFD  F009         	goto	l5245
  7827   0013A0                     u5660:
  7828   0013A0  0E00               	movlw	0
  7829   0013A2  6E4D               	movwf	?___fladd^0,c
  7830   0013A4  0E00               	movlw	0
  7831   0013A6  6E4E               	movwf	(?___fladd+1)^0,c
  7832   0013A8  0E00               	movlw	0
  7833   0013AA  6E4F               	movwf	(?___fladd+2)^0,c
  7834   0013AC  0E00               	movlw	0
  7835   0013AE  6E50               	movwf	(?___fladd+3)^0,c
  7836   0013B0  EF98  F00A         	goto	l1198
  7837   0013B4                     l5229:
  7838   0013B4  90D8               	bcf	status,0,c
  7839   0013B6  364D               	rlcf	___fladd@b^0,f,c
  7840   0013B8  364E               	rlcf	(___fladd@b+1)^0,f,c
  7841   0013BA  364F               	rlcf	(___fladd@b+2)^0,f,c
  7842   0013BC  3650               	rlcf	(___fladd@b+3)^0,f,c
  7843   0013BE  AE5C               	btfss	___fladd@grs^0,7,c
  7844   0013C0  EFE4  F009         	goto	u5671
  7845   0013C4  EFE6  F009         	goto	u5670
  7846   0013C8                     u5671:
  7847   0013C8  EFE7  F009         	goto	l5235
  7848   0013CC                     u5670:
  7849   0013CC  804D               	bsf	___fladd@b^0,0,c
  7850   0013CE                     l5235:
  7851   0013CE  A05C               	btfss	___fladd@grs^0,0,c
  7852   0013D0  EFEC  F009         	goto	u5681
  7853   0013D4  EFEE  F009         	goto	u5680
  7854   0013D8                     u5681:
  7855   0013D8  EFF2  F009         	goto	l5239
  7856   0013DC                     u5680:
  7857   0013DC  80D8               	bsf	status,0,c
  7858   0013DE  365C               	rlcf	___fladd@grs^0,f,c
  7859   0013E0  EFF4  F009         	goto	l5241
  7860   0013E4                     l5239:
  7861   0013E4  90D8               	bcf	status,0,c
  7862   0013E6  365C               	rlcf	___fladd@grs^0,f,c
  7863   0013E8                     l5241:
  7864   0013E8  505B               	movf	___fladd@bexp^0,w,c
  7865   0013EA  B4D8               	btfsc	status,2,c
  7866   0013EC  EFFA  F009         	goto	u5691
  7867   0013F0  EFFC  F009         	goto	u5690
  7868   0013F4                     u5691:
  7869   0013F4  EFFD  F009         	goto	l5245
  7870   0013F8                     u5690:
  7871   0013F8  065B               	decf	___fladd@bexp^0,f,c
  7872   0013FA                     l5245:
  7873   0013FA  AE4F               	btfss	(___fladd@b+2)^0,7,c
  7874   0013FC  EF02  F00A         	goto	u5701
  7875   001400  EF04  F00A         	goto	u5700
  7876   001404                     u5701:
  7877   001404  EFDA  F009         	goto	l5229
  7878   001408                     u5700:
  7879   001408                     l5247:
  7880   001408  0E00               	movlw	0
  7881   00140A  6E5A               	movwf	___fladd@aexp^0,c
  7882   00140C  AE5C               	btfss	___fladd@grs^0,7,c
  7883   00140E  EF0B  F00A         	goto	u5711
  7884   001412  EF0D  F00A         	goto	u5710
  7885   001416                     u5711:
  7886   001416  EF25  F00A         	goto	l1215
  7887   00141A                     u5710:
  7888   00141A  C05C  F055         	movff	___fladd@grs,??___fladd
  7889   00141E  0E7F               	movlw	127
  7890   001420  1655               	andwf	??___fladd^0,f,c
  7891   001422  B4D8               	btfsc	status,2,c
  7892   001424  EF16  F00A         	goto	u5721
  7893   001428  EF18  F00A         	goto	u5720
  7894   00142C                     u5721:
  7895   00142C  EF1C  F00A         	goto	l1216
  7896   001430                     u5720:
  7897   001430                     l5253:
  7898   001430  0E01               	movlw	1
  7899   001432  6E5A               	movwf	___fladd@aexp^0,c
  7900   001434  EF25  F00A         	goto	l1215
  7901   001438                     l1216:
  7902   001438  A04D               	btfss	___fladd@b^0,0,c
  7903   00143A  EF21  F00A         	goto	u5731
  7904   00143E  EF23  F00A         	goto	u5730
  7905   001442                     u5731:
  7906   001442  EF25  F00A         	goto	l1215
  7907   001446                     u5730:
  7908   001446  EF18  F00A         	goto	l5253
  7909   00144A                     l1215:
  7910   00144A  505A               	movf	___fladd@aexp^0,w,c
  7911   00144C  B4D8               	btfsc	status,2,c
  7912   00144E  EF2B  F00A         	goto	u5741
  7913   001452  EF2D  F00A         	goto	u5740
  7914   001456                     u5741:
  7915   001456  EF58  F00A         	goto	l5265
  7916   00145A                     u5740:
  7917   00145A  0E01               	movlw	1
  7918   00145C  264D               	addwf	___fladd@b^0,f,c
  7919   00145E  0E00               	movlw	0
  7920   001460  224E               	addwfc	(___fladd@b+1)^0,f,c
  7921   001462  224F               	addwfc	(___fladd@b+2)^0,f,c
  7922   001464  2250               	addwfc	(___fladd@b+3)^0,f,c
  7923   001466  A050               	btfss	(___fladd@b+3)^0,0,c
  7924   001468  EF38  F00A         	goto	u5751
  7925   00146C  EF3A  F00A         	goto	u5750
  7926   001470                     u5751:
  7927   001470  EF58  F00A         	goto	l5265
  7928   001474                     u5750:
  7929   001474  C04D  F055         	movff	___fladd@b,??___fladd
  7930   001478  C04E  F056         	movff	___fladd@b+1,??___fladd+1
  7931   00147C  C04F  F057         	movff	___fladd@b+2,??___fladd+2
  7932   001480  C050  F058         	movff	___fladd@b+3,??___fladd+3
  7933   001484  3458               	rlcf	(??___fladd+3)^0,w,c
  7934   001486  3258               	rrcf	(??___fladd+3)^0,f,c
  7935   001488  3257               	rrcf	(??___fladd+2)^0,f,c
  7936   00148A  3256               	rrcf	(??___fladd+1)^0,f,c
  7937   00148C  3255               	rrcf	??___fladd^0,f,c
  7938   00148E  C055  F04D         	movff	??___fladd,___fladd@b
  7939   001492  C056  F04E         	movff	??___fladd+1,___fladd@b+1
  7940   001496  C057  F04F         	movff	??___fladd+2,___fladd@b+2
  7941   00149A  C058  F050         	movff	??___fladd+3,___fladd@b+3
  7942   00149E  285B               	incf	___fladd@bexp^0,w,c
  7943   0014A0  B4D8               	btfsc	status,2,c
  7944   0014A2  EF55  F00A         	goto	u5761
  7945   0014A6  EF57  F00A         	goto	u5760
  7946   0014AA                     u5761:
  7947   0014AA  EF58  F00A         	goto	l5265
  7948   0014AE                     u5760:
  7949   0014AE  2A5B               	incf	___fladd@bexp^0,f,c
  7950   0014B0                     l5265:
  7951   0014B0  285B               	incf	___fladd@bexp^0,w,c
  7952   0014B2  B4D8               	btfsc	status,2,c
  7953   0014B4  EF5E  F00A         	goto	u5771
  7954   0014B8  EF60  F00A         	goto	u5770
  7955   0014BC                     u5771:
  7956   0014BC  EF68  F00A         	goto	l5269
  7957   0014C0                     u5770:
  7958   0014C0  505B               	movf	___fladd@bexp^0,w,c
  7959   0014C2  A4D8               	btfss	status,2,c
  7960   0014C4  EF66  F00A         	goto	u5781
  7961   0014C8  EF68  F00A         	goto	u5780
  7962   0014CC                     u5781:
  7963   0014CC  EF7A  F00A         	goto	l5273
  7964   0014D0                     u5780:
  7965   0014D0                     l5269:
  7966   0014D0  0E00               	movlw	0
  7967   0014D2  6E4D               	movwf	___fladd@b^0,c
  7968   0014D4  0E00               	movlw	0
  7969   0014D6  6E4E               	movwf	(___fladd@b+1)^0,c
  7970   0014D8  0E00               	movlw	0
  7971   0014DA  6E4F               	movwf	(___fladd@b+2)^0,c
  7972   0014DC  0E00               	movlw	0
  7973   0014DE  6E50               	movwf	(___fladd@b+3)^0,c
  7974   0014E0  505B               	movf	___fladd@bexp^0,w,c
  7975   0014E2  A4D8               	btfss	status,2,c
  7976   0014E4  EF76  F00A         	goto	u5791
  7977   0014E8  EF78  F00A         	goto	u5790
  7978   0014EC                     u5791:
  7979   0014EC  EF7A  F00A         	goto	l5273
  7980   0014F0                     u5790:
  7981   0014F0  0E00               	movlw	0
  7982   0014F2  6E59               	movwf	___fladd@signs^0,c
  7983   0014F4                     l5273:
  7984   0014F4  A05B               	btfss	___fladd@bexp^0,0,c
  7985   0014F6  EF7F  F00A         	goto	u5801
  7986   0014FA  EF81  F00A         	goto	u5800
  7987   0014FE                     u5801:
  7988   0014FE  EF84  F00A         	goto	l5277
  7989   001502                     u5800:
  7990   001502  8E4F               	bsf	(___fladd@b+2)^0,7,c
  7991   001504  EF85  F00A         	goto	l5279
  7992   001508                     l5277:
  7993   001508  9E4F               	bcf	(___fladd@b+2)^0,7,c
  7994   00150A                     l5279:
  7995   00150A  90D8               	bcf	status,0,c
  7996   00150C  305B               	rrcf	___fladd@bexp^0,w,c
  7997   00150E  6E50               	movwf	(___fladd@b+3)^0,c
  7998   001510  AE59               	btfss	___fladd@signs^0,7,c
  7999   001512  EF8D  F00A         	goto	u5811
  8000   001516  EF8F  F00A         	goto	u5810
  8001   00151A                     u5811:
  8002   00151A  EF90  F00A         	goto	l5285
  8003   00151E                     u5810:
  8004   00151E  8E50               	bsf	(___fladd@b+3)^0,7,c
  8005   001520                     l5285:
  8006   001520  C04D  F04D         	movff	___fladd@b,?___fladd
  8007   001524  C04E  F04E         	movff	___fladd@b+1,?___fladd+1
  8008   001528  C04F  F04F         	movff	___fladd@b+2,?___fladd+2
  8009   00152C  C050  F050         	movff	___fladd@b+3,?___fladd+3
  8010   001530                     l1198:
  8011   001530  0012               	return		;funcret
  8012   001532                     __end_of___fladd:
  8013                           	callstack 0
  8014                           
  8015 ;; *************** function _ADC_StartConversion_Interrupt *****************
  8016 ;; Defined at:
  8017 ;;		line 182 in file "MCAL_layer/ADC/adc.c"
  8018 ;; Parameters:    Size  Location     Type
  8019 ;;  adc_confg       2   17[COMRAM] PTR struct .
  8020 ;;		 -> adc_0(8), 
  8021 ;;  channel         1   19[COMRAM] enum E3032
  8022 ;; Auto vars:     Size  Location     Type
  8023 ;;  ret             1   20[COMRAM] unsigned char 
  8024 ;; Return value:  Size  Location     Type
  8025 ;;                  1    wreg      unsigned char 
  8026 ;; Registers used:
  8027 ;;		wreg, status,2, status,0, cstack
  8028 ;; Tracked objects:
  8029 ;;		On entry : 0/0
  8030 ;;		On exit  : 0/0
  8031 ;;		Unchanged: 0/0
  8032 ;; Data sizes:     COMRAM   BANK0   BANK1   BANK2   BANK3   BANK4   BANK5   BANK6   BANK7   BANK8   BANK9  BANK10  BANK1
      +1  BANK12  BANK13  BANK14  BANK15
  8033 ;;      Params:         3       0       0       0       0       0       0       0       0       0       0       0       
      +0       0       0       0       0
  8034 ;;      Locals:         1       0       0       0       0       0       0       0       0       0       0       0       
      +0       0       0       0       0
  8035 ;;      Temps:          0       0       0       0       0       0       0       0       0       0       0       0       
      +0       0       0       0       0
  8036 ;;      Totals:         4       0       0       0       0       0       0       0       0       0       0       0       
      +0       0       0       0       0
  8037 ;;Total ram usage:        4 bytes
  8038 ;; Hardware stack levels used: 1
  8039 ;; Hardware stack levels required when called: 5
  8040 ;; This function calls:
  8041 ;;		_adc_select_channel
  8042 ;;		_adc_startconversion
  8043 ;; This function is called by:
  8044 ;;		_main
  8045 ;; This function uses a non-reentrant model
  8046 ;;
  8047                           
  8048                           	psect	text42
  8049   003AB6                     __ptext42:
  8050                           	callstack 0
  8051   003AB6                     _ADC_StartConversion_Interrupt:
  8052                           	callstack 25
  8053   003AB6                     
  8054                           ;MCAL_layer/ADC/adc.c: 184:     if(((void*)0) == adc_confg){
  8055   003AB6  5012               	movf	ADC_StartConversion_Interrupt@adc_confg^0,w,c
  8056   003AB8  1013               	iorwf	(ADC_StartConversion_Interrupt@adc_confg+1)^0,w,c
  8057   003ABA  A4D8               	btfss	status,2,c
  8058   003ABC  EF62  F01D         	goto	u4891
  8059   003AC0  EF64  F01D         	goto	u4890
  8060   003AC4                     u4891:
  8061   003AC4  EF68  F01D         	goto	l312
  8062   003AC8                     u4890:
  8063   003AC8                     
  8064                           ;MCAL_layer/ADC/adc.c: 185:         ret = (Std_ReturnType)0x00;
  8065   003AC8  0E00               	movlw	0
  8066   003ACA  6E15               	movwf	ADC_StartConversion_Interrupt@ret^0,c
  8067                           
  8068                           ;MCAL_layer/ADC/adc.c: 186:     }
  8069   003ACC  EF79  F01D         	goto	l4665
  8070   003AD0                     l312:
  8071                           
  8072                           ;MCAL_layer/ADC/adc.c: 188:         (PIR1bits.ADIF = 0);
  8073   003AD0  9C9E               	bcf	158,6,c	;volatile
  8074   003AD2                     
  8075                           ;MCAL_layer/ADC/adc.c: 190:         ret = adc_select_channel(adc_confg, channel);
  8076   003AD2  C012  F00D         	movff	ADC_StartConversion_Interrupt@adc_confg,adc_select_channel@adc_confg
  8077   003AD6  C013  F00E         	movff	ADC_StartConversion_Interrupt@adc_confg+1,adc_select_channel@adc_confg+1
  8078   003ADA  C014  F00F         	movff	ADC_StartConversion_Interrupt@channel,adc_select_channel@channel
  8079   003ADE  ECD1  F01D         	call	_adc_select_channel	;wreg free
  8080   003AE2  6E15               	movwf	ADC_StartConversion_Interrupt@ret^0,c
  8081                           
  8082                           ;MCAL_layer/ADC/adc.c: 192:         ret = adc_startconversion(adc_confg);
  8083   003AE4  C012  F00D         	movff	ADC_StartConversion_Interrupt@adc_confg,adc_startconversion@adc_confg
  8084   003AE8  C013  F00E         	movff	ADC_StartConversion_Interrupt@adc_confg+1,adc_startconversion@adc_confg+1
  8085   003AEC  EC43  F01E         	call	_adc_startconversion	;wreg free
  8086   003AF0  6E15               	movwf	ADC_StartConversion_Interrupt@ret^0,c
  8087   003AF2                     l4665:
  8088                           
  8089                           ;MCAL_layer/ADC/adc.c: 195:     return ret;
  8090   003AF2  5015               	movf	ADC_StartConversion_Interrupt@ret^0,w,c
  8091   003AF4  0012               	return		;funcret
  8092   003AF6                     __end_of_ADC_StartConversion_Interrupt:
  8093                           	callstack 0
  8094                           
  8095 ;; *************** function _adc_startconversion *****************
  8096 ;; Defined at:
  8097 ;;		line 100 in file "MCAL_layer/ADC/adc.c"
  8098 ;; Parameters:    Size  Location     Type
  8099 ;;  adc_confg       2   12[COMRAM] PTR struct .
  8100 ;;		 -> adc_0(8), 
  8101 ;; Auto vars:     Size  Location     Type
  8102 ;;  ret             1   14[COMRAM] unsigned char 
  8103 ;; Return value:  Size  Location     Type
  8104 ;;                  1    wreg      unsigned char 
  8105 ;; Registers used:
  8106 ;;		wreg, status,2, status,0
  8107 ;; Tracked objects:
  8108 ;;		On entry : 0/0
  8109 ;;		On exit  : 0/0
  8110 ;;		Unchanged: 0/0
  8111 ;; Data sizes:     COMRAM   BANK0   BANK1   BANK2   BANK3   BANK4   BANK5   BANK6   BANK7   BANK8   BANK9  BANK10  BANK1
      +1  BANK12  BANK13  BANK14  BANK15
  8112 ;;      Params:         2       0       0       0       0       0       0       0       0       0       0       0       
      +0       0       0       0       0
  8113 ;;      Locals:         1       0       0       0       0       0       0       0       0       0       0       0       
      +0       0       0       0       0
  8114 ;;      Temps:          0       0       0       0       0       0       0       0       0       0       0       0       
      +0       0       0       0       0
  8115 ;;      Totals:         3       0       0       0       0       0       0       0       0       0       0       0       
      +0       0       0       0       0
  8116 ;;Total ram usage:        3 bytes
  8117 ;; Hardware stack levels used: 1
  8118 ;; Hardware stack levels required when called: 4
  8119 ;; This function calls:
  8120 ;;		Nothing
  8121 ;; This function is called by:
  8122 ;;		_ADC_StartConversion_Interrupt
  8123 ;;		_ADC_GetConversion_Blocking
  8124 ;; This function uses a non-reentrant model
  8125 ;;
  8126                           
  8127                           	psect	text43
  8128   003C86                     __ptext43:
  8129                           	callstack 0
  8130   003C86                     _adc_startconversion:
  8131                           	callstack 25
  8132   003C86                     
  8133                           ;MCAL_layer/ADC/adc.c: 101:      Std_ReturnType ret = (Std_ReturnType)0x01;
  8134   003C86  0E01               	movlw	1
  8135   003C88  6E0F               	movwf	adc_startconversion@ret^0,c
  8136   003C8A                     
  8137                           ;MCAL_layer/ADC/adc.c: 102:     if(((void*)0) == adc_confg)
  8138   003C8A  500D               	movf	adc_startconversion@adc_confg^0,w,c
  8139   003C8C  100E               	iorwf	(adc_startconversion@adc_confg+1)^0,w,c
  8140   003C8E  A4D8               	btfss	status,2,c
  8141   003C90  EF4C  F01E         	goto	u4691
  8142   003C94  EF4E  F01E         	goto	u4690
  8143   003C98                     u4691:
  8144   003C98  EF52  F01E         	goto	l269
  8145   003C9C                     u4690:
  8146   003C9C                     
  8147                           ;MCAL_layer/ADC/adc.c: 103:         ret = (Std_ReturnType)0x00;
  8148   003C9C  0E00               	movlw	0
  8149   003C9E  6E0F               	movwf	adc_startconversion@ret^0,c
  8150   003CA0  EF53  F01E         	goto	l4519
  8151   003CA4                     l269:
  8152                           
  8153                           ;MCAL_layer/ADC/adc.c: 105:     {;MCAL_layer/ADC/adc.c: 106:      (ADCON0bits.GODONE = 1
      +                          );
  8154   003CA4  82C2               	bsf	194,1,c	;volatile
  8155   003CA6                     l4519:
  8156                           
  8157                           ;MCAL_layer/ADC/adc.c: 108:     return ret;
  8158   003CA6  500F               	movf	adc_startconversion@ret^0,w,c
  8159   003CA8  0012               	return		;funcret
  8160   003CAA                     __end_of_adc_startconversion:
  8161                           	callstack 0
  8162                           
  8163 ;; *************** function _adc_select_channel *****************
  8164 ;; Defined at:
  8165 ;;		line 89 in file "MCAL_layer/ADC/adc.c"
  8166 ;; Parameters:    Size  Location     Type
  8167 ;;  adc_confg       2   12[COMRAM] PTR struct .
  8168 ;;		 -> adc_0(8), 
  8169 ;;  channel         1   14[COMRAM] enum E3032
  8170 ;; Auto vars:     Size  Location     Type
  8171 ;;  ret             1   16[COMRAM] unsigned char 
  8172 ;; Return value:  Size  Location     Type
  8173 ;;                  1    wreg      unsigned char 
  8174 ;; Registers used:
  8175 ;;		wreg, status,2, status,0
  8176 ;; Tracked objects:
  8177 ;;		On entry : 0/0
  8178 ;;		On exit  : 0/0
  8179 ;;		Unchanged: 0/0
  8180 ;; Data sizes:     COMRAM   BANK0   BANK1   BANK2   BANK3   BANK4   BANK5   BANK6   BANK7   BANK8   BANK9  BANK10  BANK1
      +1  BANK12  BANK13  BANK14  BANK15
  8181 ;;      Params:         3       0       0       0       0       0       0       0       0       0       0       0       
      +0       0       0       0       0
  8182 ;;      Locals:         1       0       0       0       0       0       0       0       0       0       0       0       
      +0       0       0       0       0
  8183 ;;      Temps:          1       0       0       0       0       0       0       0       0       0       0       0       
      +0       0       0       0       0
  8184 ;;      Totals:         5       0       0       0       0       0       0       0       0       0       0       0       
      +0       0       0       0       0
  8185 ;;Total ram usage:        5 bytes
  8186 ;; Hardware stack levels used: 1
  8187 ;; Hardware stack levels required when called: 4
  8188 ;; This function calls:
  8189 ;;		Nothing
  8190 ;; This function is called by:
  8191 ;;		_ADC_StartConversion_Interrupt
  8192 ;;		_ADC_GetConversion_Blocking
  8193 ;; This function uses a non-reentrant model
  8194 ;;
  8195                           
  8196                           	psect	text44
  8197   003BA2                     __ptext44:
  8198                           	callstack 0
  8199   003BA2                     _adc_select_channel:
  8200                           	callstack 25
  8201   003BA2                     
  8202                           ;MCAL_layer/ADC/adc.c: 90:     Std_ReturnType ret = (Std_ReturnType)0x01;
  8203   003BA2  0E01               	movlw	1
  8204   003BA4  6E11               	movwf	adc_select_channel@ret^0,c
  8205   003BA6                     
  8206                           ;MCAL_layer/ADC/adc.c: 91:     if(((void*)0) == adc_confg)
  8207   003BA6  500D               	movf	adc_select_channel@adc_confg^0,w,c
  8208   003BA8  100E               	iorwf	(adc_select_channel@adc_confg+1)^0,w,c
  8209   003BAA  A4D8               	btfss	status,2,c
  8210   003BAC  EFDA  F01D         	goto	u4681
  8211   003BB0  EFDC  F01D         	goto	u4680
  8212   003BB4                     u4681:
  8213   003BB4  EFE0  F01D         	goto	l4507
  8214   003BB8                     u4680:
  8215   003BB8                     
  8216                           ;MCAL_layer/ADC/adc.c: 92:         ret = (Std_ReturnType)0x00;
  8217   003BB8  0E00               	movlw	0
  8218   003BBA  6E11               	movwf	adc_select_channel@ret^0,c
  8219   003BBC  EFE9  F01D         	goto	l4509
  8220   003BC0                     l4507:
  8221                           
  8222                           ;MCAL_layer/ADC/adc.c: 94:     {;MCAL_layer/ADC/adc.c: 95:      ADCON0bits.CHS = channel
      +                          ;
  8223   003BC0  C00F  F010         	movff	adc_select_channel@channel,??_adc_select_channel
  8224   003BC4  4610               	rlncf	??_adc_select_channel^0,f,c
  8225   003BC6  4610               	rlncf	??_adc_select_channel^0,f,c
  8226   003BC8  50C2               	movf	194,w,c	;volatile
  8227   003BCA  1810               	xorwf	??_adc_select_channel^0,w,c
  8228   003BCC  0BC3               	andlw	-61
  8229   003BCE  1810               	xorwf	??_adc_select_channel^0,w,c
  8230   003BD0  6EC2               	movwf	194,c	;volatile
  8231   003BD2                     l4509:
  8232                           
  8233                           ;MCAL_layer/ADC/adc.c: 97:     return ret;
  8234   003BD2  5011               	movf	adc_select_channel@ret^0,w,c
  8235   003BD4  0012               	return		;funcret
  8236   003BD6                     __end_of_adc_select_channel:
  8237                           	callstack 0
  8238                           
  8239 ;; *************** function _InterruptManager *****************
  8240 ;; Defined at:
  8241 ;;		line 37 in file "MCAL_layer/Interrupt/interrupt_manager.c"
  8242 ;; Parameters:    Size  Location     Type
  8243 ;;		None
  8244 ;; Auto vars:     Size  Location     Type
  8245 ;;		None
  8246 ;; Return value:  Size  Location     Type
  8247 ;;                  1    wreg      void 
  8248 ;; Registers used:
  8249 ;;		wreg, fsr2l, fsr2h, status,2, status,0, pcl, pclath, pclatu, tosl, cstack
  8250 ;; Tracked objects:
  8251 ;;		On entry : 0/0
  8252 ;;		On exit  : 0/0
  8253 ;;		Unchanged: 0/0
  8254 ;; Data sizes:     COMRAM   BANK0   BANK1   BANK2   BANK3   BANK4   BANK5   BANK6   BANK7   BANK8   BANK9  BANK10  BANK1
      +1  BANK12  BANK13  BANK14  BANK15
  8255 ;;      Params:         0       0       0       0       0       0       0       0       0       0       0       0       
      +0       0       0       0       0
  8256 ;;      Locals:         0       0       0       0       0       0       0       0       0       0       0       0       
      +0       0       0       0       0
  8257 ;;      Temps:          4       0       0       0       0       0       0       0       0       0       0       0       
      +0       0       0       0       0
  8258 ;;      Totals:         4       0       0       0       0       0       0       0       0       0       0       0       
      +0       0       0       0       0
  8259 ;;Total ram usage:        4 bytes
  8260 ;; Hardware stack levels used: 1
  8261 ;; Hardware stack levels required when called: 3
  8262 ;; This function calls:
  8263 ;;		_ADC_ISR
  8264 ;; This function is called by:
  8265 ;;		Interrupt level 2
  8266 ;; This function uses a non-reentrant model
  8267 ;;
  8268                           
  8269                           	psect	intcode
  8270   000008                     __pintcode:
  8271                           	callstack 0
  8272   000008                     _InterruptManager:
  8273                           	callstack 18
  8274                           
  8275                           ;incstack = 0
  8276   000008  8273               	bsf	int$flags,1,c	;set compiler interrupt flag (level 2)
  8277   00000A  EDD6  F01C         	call	int_func,f	;refresh shadow registers
  8278                           
  8279                           	psect	intcode_body
  8280   0039AC                     __pintcode_body:
  8281                           	callstack 18
  8282   0039AC                     int_func:
  8283                           	callstack 18
  8284   0039AC  0006               	pop		; remove dummy address from shadow register refresh
  8285   0039AE  CFFA F009          	movff	pclath,??_InterruptManager
  8286   0039B2  CFFB F00A          	movff	pclatu,??_InterruptManager+1
  8287   0039B6  CFD9 F00B          	movff	fsr2l,??_InterruptManager+2
  8288   0039BA  CFDA F00C          	movff	fsr2h,??_InterruptManager+3
  8289   0039BE                     
  8290                           ;MCAL_layer/Interrupt/interrupt_manager.c: 39:     if((0x01 == PIE1bits.ADIE) && (0x01 =
      +                          = PIR1bits.ADIF)){
  8291   0039BE  AC9D               	btfss	157,6,c	;volatile
  8292   0039C0  EFE4  F01C         	goto	i2u533_41
  8293   0039C4  EFE6  F01C         	goto	i2u533_40
  8294   0039C8                     i2u533_41:
  8295   0039C8  EFEF  F01C         	goto	i2l535
  8296   0039CC                     i2u533_40:
  8297   0039CC  AC9E               	btfss	158,6,c	;volatile
  8298   0039CE  EFEB  F01C         	goto	i2u534_41
  8299   0039D2  EFED  F01C         	goto	i2u534_40
  8300   0039D6                     i2u534_41:
  8301   0039D6  EFEF  F01C         	goto	i2l535
  8302   0039DA                     i2u534_40:
  8303   0039DA                     
  8304                           ;MCAL_layer/Interrupt/interrupt_manager.c: 40:         ADC_ISR();
  8305   0039DA  EC04  F01E         	call	_ADC_ISR	;wreg free
  8306   0039DE                     i2l535:
  8307   0039DE  C00C  FFDA         	movff	??_InterruptManager+3,fsr2h
  8308   0039E2  C00B  FFD9         	movff	??_InterruptManager+2,fsr2l
  8309   0039E6  C00A  FFFB         	movff	??_InterruptManager+1,pclatu
  8310   0039EA  C009  FFFA         	movff	??_InterruptManager,pclath
  8311   0039EE  9273               	bcf	int$flags,1,c	;clear compiler interrupt flag (level 2)
  8312   0039F0  0011               	retfie		f
  8313   0039F2                     __end_of_InterruptManager:
  8314                           	callstack 0
  8315                           
  8316 ;; *************** function _ADC_ISR *****************
  8317 ;; Defined at:
  8318 ;;		line 176 in file "MCAL_layer/ADC/adc.c"
  8319 ;; Parameters:    Size  Location     Type
  8320 ;;		None
  8321 ;; Auto vars:     Size  Location     Type
  8322 ;;		None
  8323 ;; Return value:  Size  Location     Type
  8324 ;;                  1    wreg      void 
  8325 ;; Registers used:
  8326 ;;		wreg, fsr2l, fsr2h, status,2, status,0, pcl, pclath, pclatu, tosl, cstack
  8327 ;; Tracked objects:
  8328 ;;		On entry : 0/0
  8329 ;;		On exit  : 0/0
  8330 ;;		Unchanged: 0/0
  8331 ;; Data sizes:     COMRAM   BANK0   BANK1   BANK2   BANK3   BANK4   BANK5   BANK6   BANK7   BANK8   BANK9  BANK10  BANK1
      +1  BANK12  BANK13  BANK14  BANK15
  8332 ;;      Params:         0       0       0       0       0       0       0       0       0       0       0       0       
      +0       0       0       0       0
  8333 ;;      Locals:         0       0       0       0       0       0       0       0       0       0       0       0       
      +0       0       0       0       0
  8334 ;;      Temps:          0       0       0       0       0       0       0       0       0       0       0       0       
      +0       0       0       0       0
  8335 ;;      Totals:         0       0       0       0       0       0       0       0       0       0       0       0       
      +0       0       0       0       0
  8336 ;;Total ram usage:        0 bytes
  8337 ;; Hardware stack levels used: 1
  8338 ;; Hardware stack levels required when called: 2
  8339 ;; This function calls:
  8340 ;;		NULL
  8341 ;;		_adc_interrupt
  8342 ;; This function is called by:
  8343 ;;		_InterruptManager
  8344 ;; This function uses a non-reentrant model
  8345 ;;
  8346                           
  8347                           	psect	text46
  8348   003C08                     __ptext46:
  8349                           	callstack 0
  8350   003C08                     _ADC_ISR:
  8351                           	callstack 18
  8352   003C08                     
  8353                           ;MCAL_layer/ADC/adc.c: 177:     (PIR1bits.ADIF = 0);
  8354   003C08  9C9E               	bcf	158,6,c	;volatile
  8355   003C0A                     
  8356                           ;MCAL_layer/ADC/adc.c: 178:     if(hundler_ADC)
  8357   003C0A  506E               	movf	_hundler_ADC^0,w,c
  8358   003C0C  106F               	iorwf	(_hundler_ADC+1)^0,w,c
  8359   003C0E  B4D8               	btfsc	status,2,c
  8360   003C10  EF0C  F01E         	goto	i2u487_41
  8361   003C14  EF0E  F01E         	goto	i2u487_40
  8362   003C18                     i2u487_41:
  8363   003C18  EF1A  F01E         	goto	i2l309
  8364   003C1C                     i2u487_40:
  8365   003C1C                     
  8366                           ;MCAL_layer/ADC/adc.c: 179:         hundler_ADC();
  8367   003C1C  D802               	call	i2u488_48
  8368   003C1E  EF1A  F01E         	goto	i2u488_49
  8369   003C22                     i2u488_48:
  8370   003C22  0005               	push	
  8371   003C24  6EFA               	movwf	pclath,c
  8372   003C26  506E               	movf	_hundler_ADC^0,w,c
  8373   003C28  6EFD               	movwf	tosl,c
  8374   003C2A  506F               	movf	(_hundler_ADC+1)^0,w,c
  8375   003C2C  6EFE               	movwf	tosh,c
  8376   003C2E  6AFF               	clrf	tosu,c
  8377   003C30  50FA               	movf	pclath,w,c
  8378   003C32  0012               	return		;indir
  8379   003C34                     i2u488_49:
  8380   003C34                     i2l309:
  8381   003C34  0012               	return		;funcret
  8382   003C36                     __end_of_ADC_ISR:
  8383                           	callstack 0
  8384                           
  8385 ;; *************** function _adc_interrupt *****************
  8386 ;; Defined at:
  8387 ;;		line 149 in file "Fan_contraller.c"
  8388 ;; Parameters:    Size  Location     Type
  8389 ;;		None
  8390 ;; Auto vars:     Size  Location     Type
  8391 ;;  ret             1    0        unsigned char 
  8392 ;; Return value:  Size  Location     Type
  8393 ;;                  1    wreg      void 
  8394 ;; Registers used:
  8395 ;;		wreg, fsr2l, fsr2h, status,2, status,0, cstack
  8396 ;; Tracked objects:
  8397 ;;		On entry : 0/0
  8398 ;;		On exit  : 0/0
  8399 ;;		Unchanged: 0/0
  8400 ;; Data sizes:     COMRAM   BANK0   BANK1   BANK2   BANK3   BANK4   BANK5   BANK6   BANK7   BANK8   BANK9  BANK10  BANK1
      +1  BANK12  BANK13  BANK14  BANK15
  8401 ;;      Params:         0       0       0       0       0       0       0       0       0       0       0       0       
      +0       0       0       0       0
  8402 ;;      Locals:         0       0       0       0       0       0       0       0       0       0       0       0       
      +0       0       0       0       0
  8403 ;;      Temps:          0       0       0       0       0       0       0       0       0       0       0       0       
      +0       0       0       0       0
  8404 ;;      Totals:         0       0       0       0       0       0       0       0       0       0       0       0       
      +0       0       0       0       0
  8405 ;;Total ram usage:        0 bytes
  8406 ;; Hardware stack levels used: 1
  8407 ;; Hardware stack levels required when called: 1
  8408 ;; This function calls:
  8409 ;;		_adc_getconversion_result
  8410 ;; This function is called by:
  8411 ;;		_ADC_ISR
  8412 ;; This function uses a non-reentrant model
  8413 ;;
  8414                           
  8415                           	psect	text47
  8416   003CC4                     __ptext47:
  8417                           	callstack 0
  8418   003CC4                     _adc_interrupt:
  8419                           	callstack 18
  8420   003CC4  0EAB               	movlw	low _adc_0
  8421   003CC6  6E01               	movwf	adc_getconversion_result@adc_confg^0,c
  8422   003CC8  0E00               	movlw	high _adc_0
  8423   003CCA  6E02               	movwf	(adc_getconversion_result@adc_confg+1)^0,c
  8424   003CCC  0E71               	movlw	low _lm35_res
  8425   003CCE  6E03               	movwf	adc_getconversion_result@conversion_result^0,c
  8426   003CD0  0E00               	movlw	high _lm35_res
  8427   003CD2  6E04               	movwf	(adc_getconversion_result@conversion_result+1)^0,c
  8428   003CD4  EC8E  F019         	call	_adc_getconversion_result	;wreg free
  8429   003CD8  0012               	return		;funcret
  8430   003CDA                     __end_of_adc_interrupt:
  8431                           	callstack 0
  8432                           
  8433 ;; *************** function _adc_getconversion_result *****************
  8434 ;; Defined at:
  8435 ;;		line 140 in file "MCAL_layer/ADC/adc.c"
  8436 ;; Parameters:    Size  Location     Type
  8437 ;;  adc_confg       2    0[COMRAM] PTR struct .
  8438 ;;		 -> adc_0(8), 
  8439 ;;  conversion_r    2    2[COMRAM] PTR unsigned short 
  8440 ;;		 -> lm35_res(2), 
  8441 ;; Auto vars:     Size  Location     Type
  8442 ;;  ret             1    7[COMRAM] unsigned char 
  8443 ;; Return value:  Size  Location     Type
  8444 ;;                  1    wreg      unsigned char 
  8445 ;; Registers used:
  8446 ;;		wreg, fsr2l, fsr2h, status,2, status,0
  8447 ;; Tracked objects:
  8448 ;;		On entry : 0/0
  8449 ;;		On exit  : 0/0
  8450 ;;		Unchanged: 0/0
  8451 ;; Data sizes:     COMRAM   BANK0   BANK1   BANK2   BANK3   BANK4   BANK5   BANK6   BANK7   BANK8   BANK9  BANK10  BANK1
      +1  BANK12  BANK13  BANK14  BANK15
  8452 ;;      Params:         4       0       0       0       0       0       0       0       0       0       0       0       
      +0       0       0       0       0
  8453 ;;      Locals:         1       0       0       0       0       0       0       0       0       0       0       0       
      +0       0       0       0       0
  8454 ;;      Temps:          3       0       0       0       0       0       0       0       0       0       0       0       
      +0       0       0       0       0
  8455 ;;      Totals:         8       0       0       0       0       0       0       0       0       0       0       0       
      +0       0       0       0       0
  8456 ;;Total ram usage:        8 bytes
  8457 ;; Hardware stack levels used: 1
  8458 ;; This function calls:
  8459 ;;		Nothing
  8460 ;; This function is called by:
  8461 ;;		_adc_interrupt
  8462 ;;		_ADC_GetConversion_Blocking
  8463 ;; This function uses a non-reentrant model
  8464 ;;
  8465                           
  8466                           	psect	text48
  8467   00331C                     __ptext48:
  8468                           	callstack 0
  8469   00331C                     _adc_getconversion_result:
  8470                           	callstack 18
  8471   00331C                     
  8472                           ;MCAL_layer/ADC/adc.c: 141:      Std_ReturnType ret = (Std_ReturnType)0x01;
  8473   00331C  0E01               	movlw	1
  8474   00331E  6E08               	movwf	adc_getconversion_result@ret^0,c
  8475   003320                     
  8476                           ;MCAL_layer/ADC/adc.c: 142:     if(((void*)0) == adc_confg || ((void*)0) == conversion_r
      +                          esult)
  8477   003320  5001               	movf	adc_getconversion_result@adc_confg^0,w,c
  8478   003322  1002               	iorwf	(adc_getconversion_result@adc_confg+1)^0,w,c
  8479   003324  B4D8               	btfsc	status,2,c
  8480   003326  EF97  F019         	goto	i2u432_41
  8481   00332A  EF99  F019         	goto	i2u432_40
  8482   00332E                     i2u432_41:
  8483   00332E  EFA2  F019         	goto	i2l4213
  8484   003332                     i2u432_40:
  8485   003332  5003               	movf	adc_getconversion_result@conversion_result^0,w,c
  8486   003334  1004               	iorwf	(adc_getconversion_result@conversion_result+1)^0,w,c
  8487   003336  A4D8               	btfss	status,2,c
  8488   003338  EFA0  F019         	goto	i2u433_41
  8489   00333C  EFA2  F019         	goto	i2u433_40
  8490   003340                     i2u433_41:
  8491   003340  EFA6  F019         	goto	i2l4215
  8492   003344                     i2u433_40:
  8493   003344                     i2l4213:
  8494                           
  8495                           ;MCAL_layer/ADC/adc.c: 143:         ret = (Std_ReturnType)0x00;
  8496   003344  0E00               	movlw	0
  8497   003346  6E08               	movwf	adc_getconversion_result@ret^0,c
  8498   003348  EFEE  F019         	goto	i2l4225
  8499   00334C                     i2l4215:
  8500                           
  8501                           ;MCAL_layer/ADC/adc.c: 145:     {;MCAL_layer/ADC/adc.c: 146:         if(1 == adc_confg->
      +                          result_format){
  8502   00334C  EE20 F007          	lfsr	2,7
  8503   003350  5001               	movf	adc_getconversion_result@adc_confg^0,w,c
  8504   003352  26D9               	addwf	fsr2l,f,c
  8505   003354  5002               	movf	(adc_getconversion_result@adc_confg+1)^0,w,c
  8506   003356  22DA               	addwfc	fsr2h,f,c
  8507   003358  A0DF               	btfss	indf2,0,c
  8508   00335A  EFB1  F019         	goto	i2u434_41
  8509   00335E  EFB3  F019         	goto	i2u434_40
  8510   003362                     i2u434_41:
  8511   003362  EFC7  F019         	goto	i2l4219
  8512   003366                     i2u434_40:
  8513   003366                     i2l4217:
  8514                           
  8515                           ;MCAL_layer/ADC/adc.c: 147:             *conversion_result = (uint16)((ADRESH << 8) + AD
      +                          RESL);
  8516   003366  50C3               	movf	195,w,c	;volatile
  8517   003368  CFC4 F005          	movff	4036,??_adc_getconversion_result	;volatile
  8518   00336C  6A06               	clrf	(??_adc_getconversion_result+1)^0,c
  8519   00336E  C005  F006         	movff	??_adc_getconversion_result,??_adc_getconversion_result+1
  8520   003372  6A05               	clrf	??_adc_getconversion_result^0,c
  8521   003374  2605               	addwf	??_adc_getconversion_result^0,f,c
  8522   003376  0E00               	movlw	0
  8523   003378  2206               	addwfc	(??_adc_getconversion_result+1)^0,f,c
  8524   00337A  C003  FFD9         	movff	adc_getconversion_result@conversion_result,fsr2l
  8525   00337E  C004  FFDA         	movff	adc_getconversion_result@conversion_result+1,fsr2h
  8526   003382  C005  FFDE         	movff	??_adc_getconversion_result,postinc2
  8527   003386  C006  FFDD         	movff	??_adc_getconversion_result+1,postdec2
  8528                           
  8529                           ;MCAL_layer/ADC/adc.c: 148:         }
  8530   00338A  EFEE  F019         	goto	i2l4225
  8531   00338E                     i2l4219:
  8532   00338E  EE20 F007          	lfsr	2,7
  8533   003392  5001               	movf	adc_getconversion_result@adc_confg^0,w,c
  8534   003394  26D9               	addwf	fsr2l,f,c
  8535   003396  5002               	movf	(adc_getconversion_result@adc_confg+1)^0,w,c
  8536   003398  22DA               	addwfc	fsr2h,f,c
  8537   00339A  B0DF               	btfsc	indf2,0,c
  8538   00339C  EFD2  F019         	goto	i2u435_41
  8539   0033A0  EFD4  F019         	goto	i2u435_40
  8540   0033A4                     i2u435_41:
  8541   0033A4  EFB3  F019         	goto	i2l4217
  8542   0033A8                     i2u435_40:
  8543   0033A8                     
  8544                           ;MCAL_layer/ADC/adc.c: 150:             *conversion_result = (uint16)(((ADRESH << 8) + A
      +                          DRESL) >> 6);
  8545   0033A8  50C3               	movf	195,w,c	;volatile
  8546   0033AA  CFC4 F005          	movff	4036,??_adc_getconversion_result	;volatile
  8547   0033AE  6A06               	clrf	(??_adc_getconversion_result+1)^0,c
  8548   0033B0  C005  F006         	movff	??_adc_getconversion_result,??_adc_getconversion_result+1
  8549   0033B4  6A05               	clrf	??_adc_getconversion_result^0,c
  8550   0033B6  2605               	addwf	??_adc_getconversion_result^0,f,c
  8551   0033B8  0E00               	movlw	0
  8552   0033BA  2206               	addwfc	(??_adc_getconversion_result+1)^0,f,c
  8553   0033BC  0E06               	movlw	6
  8554   0033BE  6E07               	movwf	(??_adc_getconversion_result+2)^0,c
  8555   0033C0                     i2u436_45:
  8556   0033C0  3406               	rlcf	(??_adc_getconversion_result+1)^0,w,c
  8557   0033C2  3206               	rrcf	(??_adc_getconversion_result+1)^0,f,c
  8558   0033C4  3205               	rrcf	??_adc_getconversion_result^0,f,c
  8559   0033C6  2E07               	decfsz	(??_adc_getconversion_result+2)^0,f,c
  8560   0033C8  EFE0  F019         	goto	i2u436_45
  8561   0033CC  C003  FFD9         	movff	adc_getconversion_result@conversion_result,fsr2l
  8562   0033D0  C004  FFDA         	movff	adc_getconversion_result@conversion_result+1,fsr2h
  8563   0033D4  C005  FFDE         	movff	??_adc_getconversion_result,postinc2
  8564   0033D8  C006  FFDD         	movff	??_adc_getconversion_result+1,postdec2
  8565   0033DC                     i2l4225:
  8566                           
  8567                           ;MCAL_layer/ADC/adc.c: 156:     return ret;
  8568   0033DC  5008               	movf	adc_getconversion_result@ret^0,w,c
  8569   0033DE  0012               	return		;funcret
  8570   0033E0                     __end_of_adc_getconversion_result:
  8571                           	callstack 0
  8572                           
  8573                           	psect	text49
  8574   000000                     __ptext49:
  8575                           	callstack 0
  8576   000000                     
  8577                           	psect	rparam
  8578   000000                     
  8579                           	psect	temp
  8580   000073                     btemp:
  8581                           	callstack 0
  8582   000073                     	ds	1
  8583   000000                     int$flags	set	btemp
  8584   000000                     wtemp8	set	btemp+1
  8585   000000                     ttemp5	set	btemp+1
  8586   000000                     ttemp6	set	btemp+4
  8587   000000                     ttemp7	set	btemp+8
  8588                           
  8589                           	psect	config
  8590                           
  8591                           ; Padding undefined space
  8592   300000                     	org	3145728
  8593   300000  FF                 	db	255
  8594                           
  8595                           ;Config register CONFIG1H @ 0x300001
  8596                           ;	Oscillator Selection bits
  8597                           ;	OSC = HS, HS oscillator
  8598                           ;	Fail-Safe Clock Monitor Enable bit
  8599                           ;	FCMEN = OFF, Fail-Safe Clock Monitor disabled
  8600                           ;	Internal/External Oscillator Switchover bit
  8601                           ;	IESO = OFF, Oscillator Switchover mode disabled
  8602   300001                     	org	3145729
  8603   300001  02                 	db	2
  8604                           
  8605                           ;Config register CONFIG2L @ 0x300002
  8606                           ;	Power-up Timer Enable bit
  8607                           ;	PWRT = OFF, PWRT disabled
  8608                           ;	Brown-out Reset Enable bits
  8609                           ;	BOREN = OFF, Brown-out Reset disabled in hardware and software
  8610                           ;	Brown Out Reset Voltage bits
  8611                           ;	BORV = 1, 
  8612   300002                     	org	3145730
  8613   300002  09                 	db	9
  8614                           
  8615                           ;Config register CONFIG2H @ 0x300003
  8616                           ;	Watchdog Timer Enable bit
  8617                           ;	WDT = OFF, WDT disabled (control is placed on the SWDTEN bit)
  8618                           ;	Watchdog Timer Postscale Select bits
  8619                           ;	WDTPS = 32768, 1:32768
  8620   300003                     	org	3145731
  8621   300003  1E                 	db	30
  8622                           
  8623                           ; Padding undefined space
  8624   300004                     	org	3145732
  8625   300004  FF                 	db	255
  8626                           
  8627                           ;Config register CONFIG3H @ 0x300005
  8628                           ;	CCP2 MUX bit
  8629                           ;	CCP2MX = PORTC, CCP2 input/output is multiplexed with RC1
  8630                           ;	PORTB A/D Enable bit
  8631                           ;	PBADEN = OFF, PORTB<4:0> pins are configured as digital I/O on Reset
  8632                           ;	Low-Power Timer1 Oscillator Enable bit
  8633                           ;	LPT1OSC = OFF, Timer1 configured for higher power operation
  8634                           ;	MCLR Pin Enable bit
  8635                           ;	MCLRE = ON, MCLR pin enabled; RE3 input pin disabled
  8636   300005                     	org	3145733
  8637   300005  81                 	db	129
  8638                           
  8639                           ;Config register CONFIG4L @ 0x300006
  8640                           ;	Stack Full/Underflow Reset Enable bit
  8641                           ;	STVREN = ON, Stack full/underflow will cause Reset
  8642                           ;	Single-Supply ICSP Enable bit
  8643                           ;	LVP = OFF, Single-Supply ICSP disabled
  8644                           ;	Extended Instruction Set Enable bit
  8645                           ;	XINST = OFF, Instruction set extension and Indexed Addressing mode disabled (Legacy mo
      +                          de)
  8646                           ;	Background Debugger Enable bit
  8647                           ;	DEBUG = 0x1, unprogrammed default
  8648   300006                     	org	3145734
  8649   300006  81                 	db	129
  8650                           
  8651                           ; Padding undefined space
  8652   300007                     	org	3145735
  8653   300007  FF                 	db	255
  8654                           
  8655                           ;Config register CONFIG5L @ 0x300008
  8656                           ;	Code Protection bit
  8657                           ;	CP0 = OFF, Block 0 (000800-003FFFh) not code-protected
  8658                           ;	Code Protection bit
  8659                           ;	CP1 = OFF, Block 1 (004000-007FFFh) not code-protected
  8660                           ;	Code Protection bit
  8661                           ;	CP2 = OFF, Block 2 (008000-00BFFFh) not code-protected
  8662                           ;	Code Protection bit
  8663                           ;	CP3 = OFF, Block 3 (00C000-00FFFFh) not code-protected
  8664   300008                     	org	3145736
  8665   300008  0F                 	db	15
  8666                           
  8667                           ;Config register CONFIG5H @ 0x300009
  8668                           ;	Boot Block Code Protection bit
  8669                           ;	CPB = OFF, Boot block (000000-0007FFh) not code-protected
  8670                           ;	Data EEPROM Code Protection bit
  8671                           ;	CPD = OFF, Data EEPROM not code-protected
  8672   300009                     	org	3145737
  8673   300009  C0                 	db	192
  8674                           
  8675                           ;Config register CONFIG6L @ 0x30000A
  8676                           ;	Write Protection bit
  8677                           ;	WRT0 = OFF, Block 0 (000800-003FFFh) not write-protected
  8678                           ;	Write Protection bit
  8679                           ;	WRT1 = OFF, Block 1 (004000-007FFFh) not write-protected
  8680                           ;	Write Protection bit
  8681                           ;	WRT2 = OFF, Block 2 (008000-00BFFFh) not write-protected
  8682                           ;	Write Protection bit
  8683                           ;	WRT3 = OFF, Block 3 (00C000-00FFFFh) not write-protected
  8684   30000A                     	org	3145738
  8685   30000A  0F                 	db	15
  8686                           
  8687                           ;Config register CONFIG6H @ 0x30000B
  8688                           ;	Configuration Register Write Protection bit
  8689                           ;	WRTC = OFF, Configuration registers (300000-3000FFh) not write-protected
  8690                           ;	Boot Block Write Protection bit
  8691                           ;	WRTB = OFF, Boot Block (000000-0007FFh) not write-protected
  8692                           ;	Data EEPROM Write Protection bit
  8693                           ;	WRTD = OFF, Data EEPROM not write-protected
  8694   30000B                     	org	3145739
  8695   30000B  E0                 	db	224
  8696                           
  8697                           ;Config register CONFIG7L @ 0x30000C
  8698                           ;	Table Read Protection bit
  8699                           ;	EBTR0 = OFF, Block 0 (000800-003FFFh) not protected from table reads executed in other
      +                           blocks
  8700                           ;	Table Read Protection bit
  8701                           ;	EBTR1 = OFF, Block 1 (004000-007FFFh) not protected from table reads executed in other
      +                           blocks
  8702                           ;	Table Read Protection bit
  8703                           ;	EBTR2 = OFF, Block 2 (008000-00BFFFh) not protected from table reads executed in other
      +                           blocks
  8704                           ;	Table Read Protection bit
  8705                           ;	EBTR3 = OFF, Block 3 (00C000-00FFFFh) not protected from table reads executed in other
      +                           blocks
  8706   30000C                     	org	3145740
  8707   30000C  0F                 	db	15
  8708                           
  8709                           ;Config register CONFIG7H @ 0x30000D
  8710                           ;	Boot Block Table Read Protection bit
  8711                           ;	EBTRB = OFF, Boot Block (000000-0007FFh) not protected from table reads executed in ot
      +                          her blocks
  8712   30000D                     	org	3145741
  8713   30000D  40                 	db	64
  8714                           tosu	equ	0xFFF
  8715                           tosh	equ	0xFFE
  8716                           tosl	equ	0xFFD
  8717                           stkptr	equ	0xFFC
  8718                           pclatu	equ	0xFFB
  8719                           pclath	equ	0xFFA
  8720                           pcl	equ	0xFF9
  8721                           tblptru	equ	0xFF8
  8722                           tblptrh	equ	0xFF7
  8723                           tblptrl	equ	0xFF6
  8724                           tablat	equ	0xFF5
  8725                           prodh	equ	0xFF4
  8726                           prodl	equ	0xFF3
  8727                           indf0	equ	0xFEF
  8728                           postinc0	equ	0xFEE
  8729                           postdec0	equ	0xFED
  8730                           preinc0	equ	0xFEC
  8731                           plusw0	equ	0xFEB
  8732                           fsr0h	equ	0xFEA
  8733                           fsr0l	equ	0xFE9
  8734                           wreg	equ	0xFE8
  8735                           indf1	equ	0xFE7
  8736                           postinc1	equ	0xFE6
  8737                           postdec1	equ	0xFE5
  8738                           preinc1	equ	0xFE4
  8739                           plusw1	equ	0xFE3
  8740                           fsr1h	equ	0xFE2
  8741                           fsr1l	equ	0xFE1
  8742                           bsr	equ	0xFE0
  8743                           indf2	equ	0xFDF
  8744                           postinc2	equ	0xFDE
  8745                           postdec2	equ	0xFDD
  8746                           preinc2	equ	0xFDC
  8747                           plusw2	equ	0xFDB
  8748                           fsr2h	equ	0xFDA
  8749                           fsr2l	equ	0xFD9
  8750                           status	equ	0xFD8

Data Sizes:
    Strings     111
    Constant    0
    Data        59
    BSS         82
    Persistent  0
    Stack       0

Auto Spaces:
    Space          Size  Autos    Used
    COMRAM          126    103     114
    BANK0           128     14     112
    BANK1           256      0      32
    BANK2           256      0       0
    BANK3           256      0       0
    BANK4           256      0       0
    BANK5           256      0       0
    BANK6           256      0       0
    BANK7           256      0       0
    BANK8           256      0       0
    BANK9           256      0       0
    BANK10          256      0       0
    BANK11          256      0       0
    BANK12          256      0       0
    BANK13          256      0       0
    BANK14          256      0       0
    BANK15          128      0       0

Pointer List with Targets:

    fputs@s	PTR const unsigned char  size(2) Largest target is 32
		 -> dbuf(BANK1[32]), 

    fputs@fp	PTR struct _IO_FILE size(2) Largest target is 12
		 -> sprintf@f(COMRAM[12]), 

    fputc@fp...source	PTR const unsigned char  size(2) Largest target is 0

    fputc@fp...buffer	PTR unsigned char  size(2) Largest target is 0

    fputc@fp	PTR struct _IO_FILE size(2) Largest target is 12
		 -> sprintf@f(COMRAM[12]), 

    vfprintf@ap	PTR PTR void  size(2) Largest target is 2
		 -> sprintf@ap(COMRAM[2]), 

    vfprintf@fp	PTR struct _IO_FILE size(2) Largest target is 12
		 -> sprintf@f(COMRAM[12]), 

    vfprintf@fmt	PTR const unsigned char  size(2) Largest target is 3
		 -> STR_3(CODE[3]), STR_2(CODE[3]), STR_1(CODE[3]), 

    vfprintf@cfmt	PTR unsigned char  size(2) Largest target is 3
		 -> STR_3(CODE[3]), STR_2(CODE[3]), STR_1(CODE[3]), 

    vfpfcnvrt@fp	PTR struct _IO_FILE size(2) Largest target is 12
		 -> sprintf@f(COMRAM[12]), 

    vfpfcnvrt@ap	PTR PTR void  size(2) Largest target is 2
		 -> sprintf@ap(COMRAM[2]), 

    vfpfcnvrt@cp	PTR unsigned char  size(2) Largest target is 3
		 -> STR_3(CODE[3]), STR_2(CODE[3]), STR_1(CODE[3]), 

    vfpfcnvrt@fmt	PTR PTR unsigned char  size(2) Largest target is 2
		 -> vfprintf@cfmt(COMRAM[2]), 

    S2228$vp	PTR void  size(2) Largest target is 0

    convarg.vp	PTR void  size(2) Largest target is 0

    dtoa@fp	PTR struct _IO_FILE size(2) Largest target is 12
		 -> sprintf@f(COMRAM[12]), 

    pad@buf	PTR unsigned char  size(2) Largest target is 32
		 -> dbuf(BANK1[32]), 

    pad@fp	PTR struct _IO_FILE size(2) Largest target is 12
		 -> sprintf@f(COMRAM[12]), 

    sprintf@fmt	PTR const unsigned char  size(2) Largest target is 3
		 -> STR_3(CODE[3]), STR_2(CODE[3]), STR_1(CODE[3]), 

    sprintf@s	PTR unsigned char  size(2) Largest target is 11
		 -> cnvert_uint32_to_string@Temp_String(COMRAM[11]), cnvert_uint16_to_string@Temp_String(COMRAM[6]), cnvert_uint8_to_string@Temp_String(COMRAM[4]), 

    sprintf@ap	PTR void [1] size(2) Largest target is 2
		 -> ?_sprintf(COMRAM[2]), 

    S2175$source	PTR const unsigned char  size(2) Largest target is 0

    f...source	PTR const unsigned char  size(2) Largest target is 0

    S2175$buffer	PTR unsigned char  size(2) Largest target is 0

    f...buffer	PTR unsigned char  size(2) Largest target is 0

    memset@dest	PTR void  size(2) Largest target is 6
		 -> arr_val(BANK0[6]), 

    memset@s	PTR unsigned char  size(2) Largest target is 6
		 -> arr_val(BANK0[6]), 

    timer2_obj.interrupt_timer2	PTR FTN()void  size(2) Largest target is 1
		 -> NULL(), 

    ccp_pwm_obj.interrupt_ccp2	PTR FTN()void  size(2) Largest target is 1
		 -> NULL(), 

    ccp_pwm_obj.interrupt_ccp1	PTR FTN()void  size(2) Largest target is 1
		 -> NULL(), 

    adc_0.internalfun_interrupt	PTR FTN()void  size(2) Largest target is 1
		 -> adc_interrupt(), 

    set_TIMER2_interrupt@timer2.interrupt_timer2	PTR FTN()void  size(2) Largest target is 1
		 -> NULL(), 

    TIMER2_HUNDLER	PTR FTN()void  size(2) Largest target is 1
		 -> NULL(), 

    set_TIMER2_interrupt@timer2	PTR struct . size(2) Largest target is 6
		 -> timer2_obj(BANK0[6]), 

    postscaler_timer_status@timer2.interrupt_timer2	PTR FTN()void  size(2) Largest target is 1
		 -> NULL(), 

    prescaler_timer_status@timer2.interrupt_timer2	PTR FTN()void  size(2) Largest target is 1
		 -> NULL(), 

    prescaler_timer_status@timer2	PTR struct . size(2) Largest target is 6
		 -> timer2_obj(BANK0[6]), 

    S1365$interrupt_timer2	PTR FTN()void  size(2) Largest target is 1
		 -> NULL(), 

    Timer2_init@timer2.interrupt_timer2	PTR FTN()void  size(2) Largest target is 1
		 -> NULL(), 

    Timer2_init@timer2	PTR struct . size(2) Largest target is 6
		 -> timer2_obj(BANK0[6]), 

    gpio_pin_intialize@Pin_Config	PTR const struct . size(2) Largest target is 6
		 -> motor.motor_confg(BANK0[2]), motor(BANK0[2]), lcd_4bit.lcd_pin(BANK0[4]), lcd_4bit(BANK0[6]), 

    gpio_pin_write_logic@Pin_Config	PTR const struct . size(2) Largest target is 6
		 -> motor.motor_confg(BANK0[2]), motor(BANK0[2]), lcd_4bit.lcd_pin(BANK0[4]), lcd_4bit(BANK0[6]), 

    gpio_pin_direction_intialize@Pin_Config	PTR const struct . size(2) Largest target is 13
		 -> ccp_pwm_obj.ccp_pin(BANK0[1]), ccp_pwm_obj(BANK0[13]), adc_0.adc_pin_confg(BANK0[1]), adc_0(BANK0[8]), 
		 -> motor.motor_confg(BANK0[2]), motor(BANK0[2]), lcd_4bit.lcd_pin(BANK0[4]), lcd_4bit(BANK0[6]), 

    port_reg	PTR volatile unsigned char [5] size(2) Largest target is 1
		 -> PORTE(BITBIGSFRlllll[1]), PORTD(BITBIGSFRlllll[1]), PORTC(BITBIGSFRlllll[1]), PORTB(BITBIGSFRlllll[1]), 
		 -> PORTA(BITBIGSFRlllll[1]), 

    lat_reg	PTR volatile unsigned char [5] size(2) Largest target is 1
		 -> LATE(BITBIGSFRllllh[1]), LATD(BITBIGSFRllllh[1]), LATC(BITBIGSFRllllh[1]), LATB(BITBIGSFRllllh[1]), 
		 -> LATA(BITBIGSFRlllll[1]), 

    tris_reg	PTR volatile unsigned char [5] size(2) Largest target is 1
		 -> TRISE(BITBIGSFRlllh[1]), TRISD(BITBIGSFRlllh[1]), TRISC(BITBIGSFRlllh[1]), TRISB(BITBIGSFRlllh[1]), 
		 -> TRISA(BITBIGSFRlllll[1]), 

    interrupt_ccp2_cfg@ccp_obj.interrupt_ccp2	PTR FTN()void  size(2) Largest target is 1
		 -> NULL(), 

    interrupt_ccp2_cfg@ccp_obj.interrupt_ccp1	PTR FTN()void  size(2) Largest target is 1
		 -> NULL(), 

    handler_cpp2	PTR FTN()void  size(2) Largest target is 1
		 -> NULL(), 

    interrupt_ccp1_cfg@ccp_obj.interrupt_ccp2	PTR FTN()void  size(2) Largest target is 1
		 -> NULL(), 

    interrupt_ccp1_cfg@ccp_obj.interrupt_ccp1	PTR FTN()void  size(2) Largest target is 1
		 -> NULL(), 

    interrupt_ccp1_cfg@ccp_obj	PTR struct . size(2) Largest target is 13
		 -> ccp_pwm_obj(BANK0[13]), 

    handler_cpp1	PTR FTN()void  size(2) Largest target is 1
		 -> NULL(), 

    CCP_PWM_Stop@ccp_obj.interrupt_ccp2	PTR FTN()void  size(2) Largest target is 1
		 -> NULL(), 

    CCP_PWM_Stop@ccp_obj.interrupt_ccp1	PTR FTN()void  size(2) Largest target is 1
		 -> NULL(), 

    CCP_PWM_Set_Duty@ccp_obj.interrupt_ccp2	PTR FTN()void  size(2) Largest target is 1
		 -> NULL(), 

    CCP_PWM_Set_Duty@ccp_obj.interrupt_ccp1	PTR FTN()void  size(2) Largest target is 1
		 -> NULL(), 

    CCP_PWM_Set_Duty@ccp_obj	PTR struct . size(2) Largest target is 13
		 -> ccp_pwm_obj(BANK0[13]), 

    set_pwm_period@ccp_obj.interrupt_ccp2	PTR FTN()void  size(2) Largest target is 1
		 -> NULL(), 

    set_pwm_period@ccp_obj.interrupt_ccp1	PTR FTN()void  size(2) Largest target is 1
		 -> NULL(), 

    set_pwm_period@ccp_obj	PTR struct . size(2) Largest target is 13
		 -> ccp_pwm_obj(BANK0[13]), 

    CCP_DeInit@ccp_obj.interrupt_ccp2	PTR FTN()void  size(2) Largest target is 1
		 -> NULL(), 

    CCP_DeInit@ccp_obj.interrupt_ccp1	PTR FTN()void  size(2) Largest target is 1
		 -> NULL(), 

    S809$interrupt_ccp2	PTR FTN()void  size(2) Largest target is 1
		 -> NULL(), 

    CCP_Init@ccp_obj.interrupt_ccp2	PTR FTN()void  size(2) Largest target is 1
		 -> NULL(), 

    S809$interrupt_ccp1	PTR FTN()void  size(2) Largest target is 1
		 -> NULL(), 

    CCP_Init@ccp_obj.interrupt_ccp1	PTR FTN()void  size(2) Largest target is 1
		 -> NULL(), 

    CCP_Init@ccp_obj	PTR struct . size(2) Largest target is 13
		 -> ccp_pwm_obj(BANK0[13]), 

    ADC_StartConversion_Interrupt@adc_confg	PTR struct . size(2) Largest target is 8
		 -> adc_0(BANK0[8]), 

    set_adc_interrupt@adc_confg.internalfun_interrupt	PTR FTN()void  size(2) Largest target is 1
		 -> adc_interrupt(), 

    hundler_ADC	PTR FTN()void  size(2) Largest target is 1
		 -> adc_interrupt(), NULL(), 

    set_adc_interrupt@adc_confg	PTR struct . size(2) Largest target is 8
		 -> adc_0(BANK0[8]), 

    adc_getconversion_result@adc_confg.internalfun_interrupt	PTR FTN()void  size(2) Largest target is 1
		 -> adc_interrupt(), 

    adc_getconversion_result@conversion_result	PTR unsigned short  size(2) Largest target is 2
		 -> lm35_res(COMRAM[2]), 

    adc_getconversion_result@adc_confg	PTR struct . size(2) Largest target is 8
		 -> adc_0(BANK0[8]), 

    adc_startconversion@adc_confg	PTR struct . size(2) Largest target is 8
		 -> adc_0(BANK0[8]), 

    adc_select_channel@adc_confg	PTR struct . size(2) Largest target is 8
		 -> adc_0(BANK0[8]), 

    S403$internalfun_interrupt	PTR FTN()void  size(2) Largest target is 1
		 -> adc_interrupt(), 

    adc_init@adc_confg.internalfun_interrupt	PTR FTN()void  size(2) Largest target is 1
		 -> adc_interrupt(), 

    adc_init@adc_confg	PTR struct . size(2) Largest target is 8
		 -> adc_0(BANK0[8]), 

    motor_move_right@motor	PTR const struct . size(2) Largest target is 2
		 -> motor(BANK0[2]), 

    motor_initialize@motor	PTR const struct . size(2) Largest target is 2
		 -> motor(BANK0[2]), 

    sp__memset	PTR void  size(2) Largest target is 6
		 -> arr_val(BANK0[6]), 

    cnvert_uint8_to_string@str	PTR unsigned char  size(2) Largest target is 6
		 -> arr_val(BANK0[6]), 

    lcd_4_bit_set_cursor@lcd	PTR const struct . size(2) Largest target is 6
		 -> lcd_4bit(BANK0[6]), 

    send_4_bit_help@lcd	PTR const struct . size(2) Largest target is 6
		 -> lcd_4bit(BANK0[6]), 

    send_4_bit_string_data_pos@data	PTR unsigned char  size(2) Largest target is 15
		 -> STR_14(CODE[14]), STR_13(CODE[13]), STR_12(CODE[14]), STR_11(CODE[13]), 
		 -> STR_10(CODE[13]), STR_9(CODE[13]), STR_8(CODE[13]), STR_7(CODE[13]), 
		 -> STR_6(CODE[13]), STR_5(CODE[13]), STR_4(CODE[15]), arr_val(BANK0[6]), 

    send_4_bit_string_data_pos@lcd	PTR const struct . size(2) Largest target is 6
		 -> lcd_4bit(BANK0[6]), 

    send_4_bit_enable@lcd	PTR const struct . size(2) Largest target is 6
		 -> lcd_4bit(BANK0[6]), 

    send_4_bit_char_data@lcd	PTR const struct . size(2) Largest target is 6
		 -> lcd_4bit(BANK0[6]), 

    send_4_bit_command@lcd	PTR const struct . size(2) Largest target is 6
		 -> lcd_4bit(BANK0[6]), 

    lcd_pins_4_initialize@lcd	PTR const struct . size(2) Largest target is 6
		 -> lcd_4bit(BANK0[6]), 


Critical Paths under _main in COMRAM

    _send_4_bit_string_data_pos->_lcd_4_bit_set_cursor
    _send_4_bit_char_data->_send_4_bit_help
    _lcd_4_bit_set_cursor->_send_4_bit_command
    _motor_move_right->_gpio_pin_write_logic
    _cnvert_uint8_to_string->_sprintf
    _sprintf->_vfprintf
    _vfprintf->_vfpfcnvrt
    _vfpfcnvrt->_dtoa
    _dtoa->_pad
    _pad->_fputs
    _fputs->_fputc
    _abs->___awmod
    _application_initialize->_CCP_Init
    _motor_initialize->_gpio_pin_intialize
    _lcd_pins_4_initialize->_send_4_bit_command
    _send_4_bit_command->_send_4_bit_help
    _send_4_bit_help->_gpio_pin_write_logic
    _send_4_bit_enable->_gpio_pin_write_logic
    _gpio_pin_intialize->_gpio_pin_write_logic
    _adc_init->_gpio_pin_direction_intialize
    _Timer2_init->_prescaler_timer_status
    _set_pwm_period->___fltol
    _CCP_PWM_Set_Duty->___fltol
    ___fltol->___fladd
    ___flmul->___xxtofl
    ___fldiv->___flmul
    ___fladd->___fldiv
    _ADC_StartConversion_Interrupt->_adc_select_channel

Critical Paths under _InterruptManager in COMRAM

    _adc_interrupt->_adc_getconversion_result

Critical Paths under _main in BANK0

    _application_initialize->_CCP_Init
    _CCP_Init->_set_pwm_period

Critical Paths under _InterruptManager in BANK0

    None.

Critical Paths under _main in BANK1

    None.

Critical Paths under _InterruptManager in BANK1

    None.

Critical Paths under _main in BANK2

    None.

Critical Paths under _InterruptManager in BANK2

    None.

Critical Paths under _main in BANK3

    None.

Critical Paths under _InterruptManager in BANK3

    None.

Critical Paths under _main in BANK4

    None.

Critical Paths under _InterruptManager in BANK4

    None.

Critical Paths under _main in BANK5

    None.

Critical Paths under _InterruptManager in BANK5

    None.

Critical Paths under _main in BANK6

    None.

Critical Paths under _InterruptManager in BANK6

    None.

Critical Paths under _main in BANK7

    None.

Critical Paths under _InterruptManager in BANK7

    None.

Critical Paths under _main in BANK8

    None.

Critical Paths under _InterruptManager in BANK8

    None.

Critical Paths under _main in BANK9

    None.

Critical Paths under _InterruptManager in BANK9

    None.

Critical Paths under _main in BANK10

    None.

Critical Paths under _InterruptManager in BANK10

    None.

Critical Paths under _main in BANK11

    None.

Critical Paths under _InterruptManager in BANK11

    None.

Critical Paths under _main in BANK12

    None.

Critical Paths under _InterruptManager in BANK12

    None.

Critical Paths under _main in BANK13

    None.

Critical Paths under _InterruptManager in BANK13

    None.

Critical Paths under _main in BANK14

    None.

Critical Paths under _InterruptManager in BANK14

    None.

Critical Paths under _main in BANK15

    None.

Critical Paths under _InterruptManager in BANK15

    None.

Call Graph Tables:

 ---------------------------------------------------------------------------------
 (Depth) Function   	        Calls       Base Space   Used Autos Params    Refs
 ---------------------------------------------------------------------------------
 (0) _main                                                 1     1      0  113468
      _ADC_StartConversion_Interrupt
                   _CCP_PWM_Set_Duty
                            ___fldiv
                            ___flmul
                            ___fltol
                           ___xxtofl
             _application_initialize
             _cnvert_uint8_to_string
                   _motor_move_right
               _send_4_bit_char_data
         _send_4_bit_string_data_pos
 ---------------------------------------------------------------------------------
 (1) _send_4_bit_string_data_pos                           7     1      6   30568
                                             35 COMRAM     6     0      6
               _lcd_4_bit_set_cursor
               _send_4_bit_char_data
 ---------------------------------------------------------------------------------
 (2) _send_4_bit_char_data                                 4     1      3   12308
                                             26 COMRAM     4     1      3
               _gpio_pin_write_logic
                  _send_4_bit_enable
                    _send_4_bit_help
 ---------------------------------------------------------------------------------
 (2) _lcd_4_bit_set_cursor                                 5     1      4   14447
                                             30 COMRAM     5     1      4
                 _send_4_bit_command
 ---------------------------------------------------------------------------------
 (1) _motor_move_right                                     3     1      2    3521
                                             22 COMRAM     2     0      2
               _gpio_pin_write_logic
 ---------------------------------------------------------------------------------
 (1) _cnvert_uint8_to_string                               9     7      2    7589
                                             94 COMRAM     8     6      2
                             _memset
                            _sprintf
 ---------------------------------------------------------------------------------
 (2) _sprintf                                             22    16      6    5851
                                             74 COMRAM    20    14      6
                           _vfprintf
 ---------------------------------------------------------------------------------
 (3) _vfprintf                                             8     2      6    5196
                                             66 COMRAM     8     2      6
                          _vfpfcnvrt
 ---------------------------------------------------------------------------------
 (4) _vfpfcnvrt                                           19    13      6    4846
                                             52 COMRAM    14     8      6
                               _dtoa
                              _fputc
 ---------------------------------------------------------------------------------
 (5) _dtoa                                                13     9      4    3626
                                             39 COMRAM    13     9      4
                            ___awdiv
                            ___awmod
                                _abs
                                _pad
 ---------------------------------------------------------------------------------
 (6) _pad                                                 11     5      6    1999
                                             28 COMRAM    11     5      6
                              _fputc
                              _fputs
 ---------------------------------------------------------------------------------
 (7) _fputs                                                7     3      4     931
                                             21 COMRAM     7     3      4
                              _fputc
 ---------------------------------------------------------------------------------
 (5) _fputc                                                9     5      4     682
                                             12 COMRAM     9     5      4
                              _putch
 ---------------------------------------------------------------------------------
 (6) _putch                                                1     1      0       0
 ---------------------------------------------------------------------------------
 (6) _abs                                                  4     2      2     142
                                             18 COMRAM     4     2      2
                            ___awmod (ARG)
 ---------------------------------------------------------------------------------
 (6) ___awmod                                              6     2      4     448
                                             12 COMRAM     6     2      4
 ---------------------------------------------------------------------------------
 (6) ___awdiv                                              8     4      4     452
                                             12 COMRAM     8     4      4
 ---------------------------------------------------------------------------------
 (2) _memset                                              12     6      6    1403
                                             12 COMRAM    12     6      6
 ---------------------------------------------------------------------------------
 (1) _application_initialize                               0     0      0   37935
                           _CCP_Init
                        _Timer2_init
                           _adc_init
              _lcd_pins_4_initialize
                   _motor_initialize
 ---------------------------------------------------------------------------------
 (2) _motor_initialize                                     3     1      2    4748
                                             26 COMRAM     2     0      2
                 _gpio_pin_intialize
 ---------------------------------------------------------------------------------
 (2) _lcd_pins_4_initialize                                6     4      2   18723
                                             30 COMRAM     6     4      2
                 _gpio_pin_intialize
                 _send_4_bit_command
 ---------------------------------------------------------------------------------
 (3) _send_4_bit_command                                   4     1      3   13676
                                             26 COMRAM     4     1      3
               _gpio_pin_write_logic
                  _send_4_bit_enable
                    _send_4_bit_help
 ---------------------------------------------------------------------------------
 (3) _send_4_bit_help                                      4     1      3    4205
                                             22 COMRAM     4     1      3
               _gpio_pin_write_logic
 ---------------------------------------------------------------------------------
 (3) _send_4_bit_enable                                    3     1      2    3767
                                             22 COMRAM     3     1      2
               _gpio_pin_write_logic
 ---------------------------------------------------------------------------------
 (3) _gpio_pin_intialize                                   4     2      2    4598
                                             22 COMRAM     4     2      2
       _gpio_pin_direction_intialize
               _gpio_pin_write_logic
 ---------------------------------------------------------------------------------
 (4) _gpio_pin_write_logic                                10     7      3    3371
                                             12 COMRAM    10     7      3
 ---------------------------------------------------------------------------------
 (2) _adc_init                                             4     2      2     937
                                             21 COMRAM     3     1      2
           _analog_pin_functionality
       _gpio_pin_direction_intialize
                  _set_adc_interrupt
 ---------------------------------------------------------------------------------
 (3) _set_adc_interrupt                                    3     1      2     128
                                             12 COMRAM     2     0      2
 ---------------------------------------------------------------------------------
 (3) _analog_pin_functionality                             1     1      0      22
                                             12 COMRAM     1     1      0
 ---------------------------------------------------------------------------------
 (2) _Timer2_init                                          3     1      2     428
                                             15 COMRAM     2     0      2
             _prescaler_timer_status
               _set_TIMER2_interrupt
 ---------------------------------------------------------------------------------
 (3) _set_TIMER2_interrupt                                 3     1      2     128
                                             12 COMRAM     2     0      2
 ---------------------------------------------------------------------------------
 (3) _prescaler_timer_status                               4     2      2     128
                                             12 COMRAM     3     1      2
 ---------------------------------------------------------------------------------
 (2) _CCP_Init                                             4     2      2   13099
                                            102 COMRAM     1     1      0
                                             12 BANK0      2     0      2
       _gpio_pin_direction_intialize
                 _interrupt_ccp1_cfg
                     _set_pwm_period
 ---------------------------------------------------------------------------------
 (3) _set_pwm_period                                      13    11      2   11936
                                              0 BANK0     12    10      2
                            ___fladd
                            ___fldiv
                            ___flmul
                            ___fltol
                           ___xxtofl
 ---------------------------------------------------------------------------------
 (3) _interrupt_ccp1_cfg                                   2     0      2     174
                                             12 COMRAM     2     0      2
 ---------------------------------------------------------------------------------
 (4) _gpio_pin_direction_intialize                         9     7      2     483
                                             12 COMRAM     9     7      2
 ---------------------------------------------------------------------------------
 (1) _CCP_PWM_Set_Duty                                    12     9      3   12841
                                              0 BANK0     12     9      3
                            ___fladd
                            ___fldiv
                            ___flmul
                            ___fltol
                           ___xxtofl
 ---------------------------------------------------------------------------------
 (4) ___xxtofl                                            14    10      4    1106
                                             12 COMRAM    14    10      4
 ---------------------------------------------------------------------------------
 (4) ___fltol                                             10     6      4     667
                                             92 COMRAM    10     6      4
                            ___fladd (ARG)
                            ___fldiv (ARG)
                            ___flmul (ARG)
                           ___xxtofl (ARG)
 ---------------------------------------------------------------------------------
 (4) ___flmul                                             25    17      8    3593
                                             26 COMRAM    25    17      8
                           ___xxtofl (ARG)
 ---------------------------------------------------------------------------------
 (4) ___fldiv                                             25    17      8    2483
                                             51 COMRAM    25    17      8
                            ___flmul (ARG)
                           ___xxtofl (ARG)
 ---------------------------------------------------------------------------------
 (4) ___fladd                                             16     8      8    3702
                                             76 COMRAM    16     8      8
                            ___fldiv (ARG)
                            ___flmul (ARG)
                           ___xxtofl (ARG)
 ---------------------------------------------------------------------------------
 (1) _ADC_StartConversion_Interrupt                        4     1      3     836
                                             17 COMRAM     4     1      3
                 _adc_select_channel
                _adc_startconversion
 ---------------------------------------------------------------------------------
 (2) _adc_startconversion                                  3     1      2     198
                                             12 COMRAM     3     1      2
 ---------------------------------------------------------------------------------
 (2) _adc_select_channel                                   5     2      3     372
                                             12 COMRAM     5     2      3
 ---------------------------------------------------------------------------------
 Estimated maximum stack depth 7
 ---------------------------------------------------------------------------------
 (Depth) Function   	        Calls       Base Space   Used Autos Params    Refs
 ---------------------------------------------------------------------------------
 (10) _InterruptManager                                    4     4      0     484
                                              8 COMRAM     4     4      0
                            _ADC_ISR
 ---------------------------------------------------------------------------------
 (11) _ADC_ISR                                             0     0      0     484
                                NULL *
                      _adc_interrupt *
 ---------------------------------------------------------------------------------
 (12) _adc_interrupt                                       1     1      0     484
           _adc_getconversion_result
 ---------------------------------------------------------------------------------
 (13) _adc_getconversion_result                            8     4      4     482
                                              0 COMRAM     8     4      4
 ---------------------------------------------------------------------------------
 (12) NULL(Fake)                                           0     0      0       0
 ---------------------------------------------------------------------------------
 Estimated maximum stack depth 13
 ---------------------------------------------------------------------------------

 Call Graph Graphs:

 _main (ROOT)
   _ADC_StartConversion_Interrupt
     _adc_select_channel
     _adc_startconversion
   _CCP_PWM_Set_Duty
     ___fladd
       ___fldiv (ARG)
         ___flmul (ARG)
           ___xxtofl (ARG)
         ___xxtofl (ARG)
       ___flmul (ARG)
       ___xxtofl (ARG)
     ___fldiv
     ___flmul
     ___fltol
       ___fladd (ARG)
       ___fldiv (ARG)
       ___flmul (ARG)
       ___xxtofl (ARG)
     ___xxtofl
   ___fldiv
   ___flmul
   ___fltol
   ___xxtofl
   _application_initialize
     _CCP_Init
       _gpio_pin_direction_intialize
       _interrupt_ccp1_cfg
       _set_pwm_period
         ___fladd
         ___fldiv
         ___flmul
         ___fltol
         ___xxtofl
     _Timer2_init
       _prescaler_timer_status
       _set_TIMER2_interrupt
     _adc_init
       _analog_pin_functionality
       _gpio_pin_direction_intialize
       _set_adc_interrupt
     _lcd_pins_4_initialize
       _gpio_pin_intialize
         _gpio_pin_direction_intialize
         _gpio_pin_write_logic
       _send_4_bit_command
         _gpio_pin_write_logic
         _send_4_bit_enable
           _gpio_pin_write_logic
         _send_4_bit_help
           _gpio_pin_write_logic
     _motor_initialize
       _gpio_pin_intialize
   _cnvert_uint8_to_string
     _memset
     _sprintf
       _vfprintf
         _vfpfcnvrt
           _dtoa
             ___awdiv
             ___awmod
             _abs
               ___awmod (ARG)
             _pad
               _fputc
                 _putch
               _fputs
                 _fputc
           _fputc
   _motor_move_right
     _gpio_pin_write_logic
   _send_4_bit_char_data
     _gpio_pin_write_logic
     _send_4_bit_enable
     _send_4_bit_help
   _send_4_bit_string_data_pos
     _lcd_4_bit_set_cursor
       _send_4_bit_command
     _send_4_bit_char_data

 _InterruptManager (ROOT)
   _ADC_ISR
     NULL(Fake) *
     _adc_interrupt *
       _adc_getconversion_result

 Address spaces:
Name               Size   Autos  Total    Cost      Usage
BIGRAM             F7F      0       0      47        0.0%
EEDATA             400      0       0       0        0.0%
BITBANK14          100      0       0      33        0.0%
BANK14             100      0       0      34        0.0%
BITBANK13          100      0       0      31        0.0%
BANK13             100      0       0      32        0.0%
BITBANK12          100      0       0      29        0.0%
BANK12             100      0       0      30        0.0%
BITBANK11          100      0       0      27        0.0%
BANK11             100      0       0      28        0.0%
BITBANK10          100      0       0      25        0.0%
BANK10             100      0       0      26        0.0%
BITBANK9           100      0       0      23        0.0%
BANK9              100      0       0      24        0.0%
BITBANK8           100      0       0      21        0.0%
BANK8              100      0       0      22        0.0%
BITBANK7           100      0       0      18        0.0%
BANK7              100      0       0      19        0.0%
BITBANK6           100      0       0      16        0.0%
BANK6              100      0       0      17        0.0%
BITBANK5           100      0       0      14        0.0%
BANK5              100      0       0      15        0.0%
BITBANK4           100      0       0      12        0.0%
BANK4              100      0       0      13        0.0%
BITBANK3           100      0       0      10        0.0%
BANK3              100      0       0      11        0.0%
BITBANK2           100      0       0       8        0.0%
BANK2              100      0       0       9        0.0%
BITBANK1           100      0       0       6        0.0%
BANK1              100      0      20       7       12.5%
BITBANK15           80      0       0      35        0.0%
BANK15              80      0       0      36        0.0%
BITBANK0            80      0       0       4        0.0%
BANK0               80      E      70       5       87.5%
BITCOMRAM           7E      0       0       0        0.0%
COMRAM              7E     67      72       1       90.5%
BITBIGSFRhlhh       25      0       0      38        0.0%
BITBIGSFRllhllh     18      0       0      42        0.0%
BITBIGSFRhh          D      0       0      37        0.0%
BITBIGSFRlllh        6      0       0      44        0.0%
BITBIGSFRhlhl        5      0       0      39        0.0%
BITBIGSFRllllh       4      0       0      45        0.0%
BITBIGSFRlllll       4      0       0      46        0.0%
BITBIGSFRllhlh       1      0       0      41        0.0%
BITBIGSFRllhh        1      0       0      40        0.0%
BITBIGSFRllhlll      1      0       0      43        0.0%
BIGSFR               0      0       0     200        0.0%
BITSFR               0      0       0     200        0.0%
SFR                  0      0       0     200        0.0%
STACK                0      0       0       2        0.0%
NULL                 0      0       0       0        0.0%
ABS                  0      0     102      20        0.0%
DATA                 0      0     102       3        0.0%
CODE                 0      0       0       0        0.0%


Microchip Technology PIC18 Macro Assembler V2.41 build 20230208172133 
Symbol Table                                                                                   Fri Oct 13 22:06:57 2023

                       ??_InterruptManager 0009                         _send_4_bit_command 374A  
                 ??_prescaler_timer_status 000F                               ___fldiv@aexp 004C  
                             ___fldiv@bexp 004B                               ___fldiv@sign 0044  
                       ?_send_4_bit_enable 0017         __end_of_send_4_bit_string_data_pos 35D6  
               _send_4_bit_string_data_pos 3540                                         l31 2E9E  
                                       l41 3748                                         l36 37BA  
                                       l46 3912                                         l72 365C  
                                       l67 35D4                                         l84 318C  
                                       l78 318A                     ?_lcd_pins_4_initialize 001F  
                             ___awdiv@sign 0012                        ?_send_4_bit_command 001B  
                     _lcd_4_bit_set_cursor 30C4                                        l201 3B30  
                                      l300 3CE6                                        l312 3AD0  
                                      l240 2B4A                                        l305 3C5C  
                                      l314 3AF4                                        l250 2BFE  
                                      l243 2BD4                                        l253 2C44  
                                      l254 2C42                                        l271 3CA8  
                                      l247 2BF6                                        l167 348E  
                                      l256 2C5A                                        l361 2A06  
                                      l266 3BD4                                        l196 3BA0  
                                      l269 3CA4                                        l381 2298  
                                      l454 2D7E                                        l375 28C8  
                                      l384 229A                                        l472 2FBC  
                                      l449 2D7C                                        l554 3976  
                                      l467 2FBA                                        l396 3CC2  
                                      l556 39AA                                        l493 3826  
                                      l645 2018                                        l655 3AB4  
                                      l576 3C06                                        l905 353E  
                                      l586 3C84                                        l892 331A  
                                      l958 30C2                                        _PR2 0FCB  
                      ??_send_4_bit_enable 0019                                        _abs 3A36  
                                      _pad 365E                            __end_of_ADC_ISR 3C36  
                             ___awmod@sign 0012                                        prod 0FF3  
                                      tosl 0FFD                                        wreg 0FE8  
                        ?_motor_initialize 001B                               ___flmul@aexp 0028  
                             ___flmul@bexp 002D             ?_ADC_StartConversion_Interrupt 0012  
                             ___flmul@sign 0027                               ___flmul@temp 0032  
                             ___flmul@prod 002E                         ??_motor_initialize 001D  
                             ___fltol@exp1 0066                                       ?_abs 0013  
                                     l1206 137A                                       l1215 144A  
                                     l1216 1438                                       l1401 2B32  
                                     l1330 23E6                                       l1243 1CF4  
                                     l1323 238A                                       l1411 3A6C  
                                     l1316 22F2                                       l1245 1B54  
                                     l1190 124E                                       l1254 1B9A  
                                     l1414 3A74                                       l1191 1214  
                                     l1319 244E                                       l1407 3876  
                                     l1256 1C12                                       l1248 1B18  
                                     l1336 2758                                       l1257 1C00  
                                     l1282 17EC                                       l1426 3256  
                                     l1434 3A34                                       l1275 15F6  
                                     l1371 3680                                       l1292 191C  
                                     l1284 1864                                       l1380 2496  
                                     l1189 1260                                       l1285 1852  
                                     l1437 3CE8                                       l1349 395E  
                                     l1198 1530                                       l1382 249E  
                                     l1279 195A                                       l3311 31DA  
                                     l3303 318E                                       l1375 36D6  
                                     l1383 24E4                                       l4201 3C48  
                                     l3401 3536                                       l3313 3210  
                                     l3305 31A0                                       l3321 3A10  
                                     l4121 2A4E                                       l4113 2A08  
                                     l1394 25E2                                       l4203 3C4C  
                                     l3331 3272                                       l3307 31B2  
                                     l3323 3A14                                       l3411 368C  
                                     l4123 2A5E                                       l4115 2A2E  
                                     l5101 10C0                                       l3501 365A  
                                     l4301 2E08                                       l3341 3298  
                                     l3333 3276                                       l3325 3258  
                                     l3421 3A50                                       l3309 31BC  
                                     l3317 39F2                                       l3413 36A0  
                                     l3405 365E                                       l4133 2AF6  
                                     l4125 2A7C                                       l4117 2A3C  
                                     l5111 10F2                                       l5103 10C8  
                                     l3431 2EE0                                       l3423 2EA0  
                                     l4151 37F8                                       l4143 37BC  
                                     l3511 38E0                                       l4311 2E5E  
                                     l4303 2E28                                       l3351 32CE  
                                     l3343 32AA                                       l3335 3284  
                                     l3327 325C                                       l3319 39FE  
                                     l3415 36A4                                       l3407 366C  
                                     l4127 2A9A                                       l4119 2A4A  
                                     l5201 12CA                                       l5121 1128  
                                     l5113 10F8                                       l5105 10D8  
                                     l4241 3CAE                                       l3433 2EF0  
                                     l3425 2EA4                                       l4153 3824  
                                     l4145 37BC                                       l3513 38F4  
                                     l3505 38C6                                       l4161 375C  
                                     l4313 2E6E                                       l4305 2E2E  
                                     l3353 32E4                                       l3345 32B2  
                                     l3361 32FA                                       l3337 328C  
                                     l3329 326A                                       l3417 36C2  
                                     l3409 3678                                       l4129 2ADE  
                                     l4137 2B08                                       l4321 36D8  
                                     l5203 12CE                                       l5211 12EE  
                                     l5131 1164                                       l5123 1138  
                                     l5115 1106                                       l5107 10DE  
                                     l4243 3CBE                                       l4251 3BE8  
                                     l3435 2F4C                                       l3427 2EB6  
                                     l4147 37CE                                       l3515 3910  
                                     l3507 38C6                                       l4163 3764  
                                     l4315 2E7E                                       l4307 2E3E  
                                     l3363 330A                                       l3355 32EC  
                                     l3347 32BA                                       l3339 3290  
                                     l3371 3494                                       l3419 3A36  
                                     l3451 248A                                       l3443 2450  
                                     l4323 36D8                                       l4501 3BA2  
                                     l5213 1314                                       l5221 136A  
                                     l5205 12DC                                       l5141 1182  
                                     l5133 1172                                       l5125 113A  
                                     l5117 1108                                       l5109 10F0  
                                     l5301 19A8                                       l3541 2C9C  
                                     l3533 2C5C                                       l4245 3CC0  
                                     l4253 3BEC                                       l4261 3C70  
                                     l3429 2ED8                                       l4149 37F0  
                                     l3509 38D8                                       l4165 37B8  
                                     l4157 374A                                       l4317 2E8E  
                                     l4309 2E4E                                       l4413 25E4  
                                     l3365 3312                                       l3357 32EE  
                                     l3349 32C8                                       l3381 34C4  
                                     l3373 34A2                                       l3461 24D8  
                                     l3453 24A6                                       l3445 2464  
                                     l4341 30E4                                       l4333 30C4  
                                     l4325 36EA                                       l4503 3BA6  
                                     l5231 13BE                                       l5223 1390  
                                     l5215 1348                                       l5207 12DE  
                                     l5151 1196                                       l5143 1186  
                                     l5135 1176                                       l5119 1118  
                                     l5127 1142                                       l5311 19CE  
                                     l5303 19AA                                       l3543 2CB2  
                                     l3535 2C60                                       l4239 3CAA  
                                     l4247 3BD6                                       l4263 3C74  
                                     l4159 374A                                       l4431 26E2  
                                     l4423 2644                                       l3359 32F4  
                                     l3391 350A                                       l3383 34D6  
                                     l3375 34AA                                       l3471 252E  
                                     l3463 24E0                                       l3455 24B6  
                                     l3447 2474                                       l4271 3850  
                                     l4351 3148                                       l4343 30F4  
                                     l4335 30C8                                       l4327 36F2  
                                     l4505 3BB8                                       l4513 3C86  
                                     l5241 13E8                                       l5233 13CC  
                                     l5225 13A0                                       l5217 134A  
                                     l5209 12E8                                       l5161 11AA  
                                     l5153 119A                                       l5145 118A  
                                     l5137 117A                                       l5129 1152  
                                     l5401 1C66                                       l5321 1A0E  
                                     l5313 19DC                                       l5305 19B2  
                                     l3545 2D14                                       l3537 2C72  
                                     l4249 3BD6                                       l4257 3C5E  
                                     l4281 2D92                                       l4441 2742  
                                     l4425 269C                                       l4417 2602  
                                     l3393 3512                                       l3385 34DE  
                                     l3377 34AE                                       l3369 3490  
                                     l3481 2582                                       l3473 2534  
                                     l3465 24EC                                       l3457 24BC  
                                     l3449 247C                                       l4273 386E  
                                     l4353 3160                                       l4345 310C  
                                     l4337 30CA                                       l4329 3746  
                                     l4601 3540                                       l4507 3BC0  
                                     l4515 3C8A                                       l5251 141A  
                                     l5243 13F8                                       l5235 13CE  
                                     l5219 135A                                       l5171 11FC  
                                     l5163 11AE                                       l5155 119E  
                                     l5147 118E                                       l5139 117E  
                                     l5091 108C                                       l5411 1CD0  
                                     l5403 1C6A                                       l5331 1A4E  
                                     l5323 1A10                                       l5315 19DE  
                                     l5307 19C2                                       l3539 2C94  
                                     l4259 3C5E                                       l4195 3CDC  
                                     l4291 2DBA                                       l4283 2D96  
                                     l4443 2746                                       l4435 26FC  
                                     l4419 260E                                       l3395 3518  
                                     l3387 34E6                                       l3379 34BC  
                                     l3483 259C                                       l3475 253A  
                                     l3467 24F6                                       l3459 24CC  
                                     l4267 3828                                       l4451 3934  
                                     l4355 3172                                       l4347 311E  
                                     l4339 30DC                                       l4611 35A2  
                                     l4603 3552                                       l4509 3BD2  
                                     l4517 3C9C                                       l5261 1474  
                                     l5253 1430                                       l5237 13DC  
                                     l5229 13B4                                       l5245 13FA  
                                     l5181 1240                                       l5173 120C  
                                     l5157 11A2                                       l5149 1192  
                                     l5165 11B2                                       l5093 108E  
                                     l5413 1CD4                                       l5405 1C84  
                                     l5341 1A7E                                       l5333 1A56  
                                     l5317 19EE                                       l5325 1A18  
                                     l5309 19C8                                       l5501 1746  
                                     l4197 3C36                                       l3493 35D6  
                                     l4293 2DD6                                       l4285 2DB6  
                                     l4277 2D80                                       l4461 3B80  
                                     l4437 2730                                       l4429 26B6  
                                     l3389 34F4                                       l3397 351E  
                                     l3485 25AC                                       l3469 24FC  
                                     l3477 2556                                       l4269 3834  
                                     l4453 3950                                       l4445 3914  
                                     l4349 3136                                       l4357 318A  
                                     l4605 3556                                       ?_pad 001D  
                                     l4519 3CA6                                       l5271 14F0  
                                     l5263 14AE                                       l5239 13E4  
                                     l5247 1408                                       l5183 1242  
                                     l5175 1222                                       l5167 11B6  
                                     l5159 11A6                                       l5095 109E  
                                     l5087 1072                                       l5415 1CE2  
                                     l5407 1C9A                                       l5351 1ABC  
                                     l5343 1A7E                                       l5335 1A5A  
                                     l5327 1A28                                       l5319 19FE  
                                     l5511 17DC                                       l5503 1770  
                                     l5431 154C                                       l4199 3C36  
                                     l4471 2B46                                       l3495 35D6  
                                     l4295 2DD8                                       l4279 2D80  
                                     l4463 3B84                                       l4439 273C  
                                     l3399 352E                                       l3487 25B2  
                                     l3479 2570                                       l4447 3924  
                                     l4631 3428                                       l4623 33E2  
                                     l4607 356E                                       l5281 1510  
                                     l5273 14F4                                       l5257 145A  
                                     l5265 14B0                                       l5249 140C  
                                     l5193 1292                                       l5185 124C  
                                     l5177 122E                                       l5169 11E0  
                                     l5097 10AE                                       l5089 107E  
                                     l5417 1CE8                                       l5409 1CB4  
                                     l5361 1B08                                       l5353 1ACC  
                                     l5329 1A3E                                       l5521 181C  
                                     l5513 17EA                                       l5505 17A6  
                                     l5441 1584                                       l5433 154E  
                                     l5601 229E                                       l4561 3960  
                                     l4481 2B9C                                       l4473 2B4C  
                                     l3497 35E8                                       l4297 2DE8  
                                     l4457 3B6E                                       l3489 25C2  
                                     l4449 392C                                       l4633 3436  
                                     l4625 33F6                                       l4641 3AF6  
                                     l4609 359E                                       l5283 151E  
                                     l5275 1502                                       l5267 14C0  
                                     l5259 1466                                       l5195 12A2  
                                     l5187 126E                                       l5179 1232  
                                     l5099 10BE                                       l5419 1CEA  
                                     l5371 1B52                                       l5363 1B16  
                                     l5355 1ADC                                       l5347 1A92  
                                     l5339 1A6E                                       l5291 1968  
                                     l5531 188E                                       l5523 184A  
                                     l5515 17FC                                       l5507 17B4  
                                     l5451 15B0                                       l5443 1594  
                                     l5435 155E                                       l5427 1532  
                                     l5603 22AE                                       l4571 3994  
                                     l4563 3960                                       l4491 2C22  
                                     l4483 2BBA                                       l4475 2B5C  
                                     l4467 2B34                                       l3499 35F0  
                                     l4299 2DF8                                       l4459 3B6E  
                                     l4635 3454                                       l4627 3408  
                                     l4643 3AF6                                       l4661 3AC8  
                                     l5285 1520                                       l5277 1508  
                                     l5269 14D0                                       l5197 12B0  
                                     l5189 127E                                       l5381 1B98  
                                     l5373 1B64                                       l5365 1B22  
                                     l5357 1AE4                                       l5349 1AAC  
                                     l5293 1976                                       l5541 1904  
                                     l5533 18B8                                       l5517 180A  
                                     l5509 17D2                                       l5461 1606  
                                     l5453 15C0                                       l5445 159A  
                                     l5437 156E                                       l5429 153E  
                                     l5621 2374                                       l5613 232C  
                                     l5605 22BC                                       l5701 2040  
                                     l4581 39A8                                       l4573 3996  
                                     l4565 3972                                       l4493 2C3C  
                                     l4485 2BDC                                       l4477 2B62  
                                     l4469 2B34                                       l4637 3470  
                                     l4629 340C                                       l4645 3B08  
                                     l4663 3AD2                                       l5279 150A  
                                     l5199 12BE                                       l5391 1BF8  
                                     l5375 1B7A                                       l5383 1BAA  
                                     l5367 1B40                                       l5359 1AF4  
                                     l5295 1978                                       l5543 1920  
                                     l5551 1946                                       l5527 1874  
                                     l5535 18BC                                       l5519 180E  
                                     l5471 1640                                       l5463 1616  
                                     l5455 15D0                                       l5447 15A0  
                                     l5439 157E                                       l5631 23F4  
                                     l5623 2380                                       l5615 2334  
                                     l5607 2302                                       l5711 2188  
                                     l5703 205C                                       l4575 3998  
                                     l4567 3978                                       l4495 2C4C  
                                     l4487 2C02                                       l4479 2B82  
                                     l4639 3472                                       l4647 3B0C  
                                     l4665 3AF2                                       l4657 3AB6  
                                     l5385 1BB8                                       l5377 1B80  
                                     l5369 1B42                                       l5297 1988  
                                     l5289 195C                                       l5553 194A  
                                     l5545 1930                                       l5537 18D6  
                                     l5529 1880                                       l5481 1692  
                                     l5473 1656                                       l5457 15E0  
                                     l5449 15AE                                       l5641 243C  
                                     l5633 23F6                                       l5625 23BC  
                                     l5617 2340                                       l5609 2318  
                                     l5713 2266                                       l5705 213A  
                                     l4577 399A                                       l4569 3988  
                                     l4497 2C58                                       l4489 2C1C  
                                     l5721 3A76                                       l4659 3AB6  
                                     l5395 1C22                                       l5387 1BBC  
                                     l5379 1B8A                                       l5299 1998  
                                     l5547 193E                                       l5539 18EA  
                                     l5491 16D8                                       l5483 16A0  
                                     l5475 1662                                       l5467 162A  
                                     l5459 15E6                                       l5571 3028  
                                     l5563 2FE8                                       l5643 243E  
                                     l5635 23FA                                       l5627 23C8  
                                     l5619 2372                                       l5715 227C  
                                     l5707 2150                                       l5651 276E  
                                     l4579 399C                                       l5723 3AA8  
                                     l5731 1D06                                       l5397 1C2E  
                                     l5389 1BCA                                       l5549 1940  
                                     l5493 16F2                                       l5485 16AC  
                                     l5477 167A                                       l5469 1636  
                                     l5581 3058                                       l5573 3036  
                                     l5565 3012                                       l5557 2FBE  
                                     l5637 241E                                       l5629 23D6  
                                     l5709 216C                                       l5717 2298  
                                     l5653 2772                                       l5661 28DE  
                                     l5741 1DD2                                       l5733 1D16  
                                     l5725 1CF6                                       l5399 1C3C  
                                     l5495 1702                                       l5487 16BC  
                                     l5479 1686                                       l5591 3082  
                                     l5583 3062                                       l5567 3014  
                                     l5559 2FD4                                       l5639 242E  
                                     l5647 275A                                       l5671 2926  
                                     l5663 28E2                                       l4599 3540  
                                     l5751 1E46                                       l5743 1DE2  
                                     l5735 1D8C                                       l5727 1CF6  
                                     l5497 171E                                       l5489 16C8  
                                     l5593 3092                                       l5569 3024  
                                     l5649 275A                                       l5673 2942  
                                     l5681 298C                                       l5665 28FE  
                                     l5657 28CA                                       l5753 1E5C  
                                     l5761 1EC0                                       l5745 1DF8  
                                     l5737 1D9A                                       l5729 1CFA  
                                     l5499 172A                                       l5595 30A2  
                                     l5579 304E                                       l5683 29A8  
                                     l5675 2960                                       l5691 29EE  
                                     l5667 2906                                       l5659 28CA  
                                     l5763 1ED6                                       l5771 1F3A  
                                     l5755 1E72                                       l5747 1E0A  
                                     l5739 1DB6                                       l5597 30B2  
                                     l5589 3076                                       l5685 29C6  
                                     l5677 297E                                       l5669 2922  
                                     l5773 1F50                                       l5781 1FB4  
                                     l5765 1EEC                                       l5757 1E84  
                                     l5749 1E26                                       l5695 2020  
                                     l5687 29E4                                       l5679 2980  
                                     l5783 1FCA                                       l5775 1F66  
                                     l5767 1EFE                                       l5759 1EA0  
                                     l5697 2026                                       l5689 29E6  
                                     l5785 1FDC                                       l5777 1F78  
                                     l5769 1F1A                                       l5699 2038  
                                     l5787 1FF8                                       l5779 1F94  
                                     STR_1 106D                                       STR_4 1001  
                                     STR_5 1046                                       STR_6 102C  
                                     STR_7 1039                                       STR_8 1060  
                                     STR_9 1039                                       u3000 2ED8  
                                     u3001 2ED4                                       u3010 2EF0  
                                     u3011 2EEC                                       u3100 24CC  
                                     u3101 24C8                                       _LATA 0F89  
                                     u3110 2570                                       _LATB 0F8A  
                                     u3111 256C                                       _LATC 0F8B  
                                     u3200 2CB2                                       u3040 2FBA  
                                     u3024 2F10                                       u3120 2582  
                                     _LATD 0F8C                                       u3201 2CAE  
                                     u3041 2FB6                                       u3025 2F0C  
                                     u3121 257E                                       _LATE 0F8D  
                                     u3034 2F6C                                       u3130 259C  
                                     u3050 2460                                       u3035 2F68  
                                     u3131 2598                                       u3051 245A  
                                     u3140 25AC                                       u3060 2462  
                                     u3141 25A8                                       u3230 2D7C  
                                     u3214 2CD2                                       u3150 35E8  
                                     u3070 2474                                       u3231 2D78  
                                     u3215 2CCE                                       u3151 35E4  
                                     u3071 2470                                       u3224 2D34  
                                     u3160 38D8                                       u3080 248A  
                                     u3225 2D30                                       u3161 38D4  
                                     u3081 2486                                       u3090 24B6  
                                     u3091 24B2                                       u3180 2C72  
                                     u4220 2A2E                                       u3181 2C6E  
                                     u4221 2A2A                                       u3190 2C94  
                                     u4310 3C48                                       u4230 2A7C  
                                     u3191 2C90                                       u4311 3C44  
                                     u4231 2A78                                       u6000 1C22  
                                     u2800 31B2                                       u4240 2A9A  
                                     u4400 386E                                       u6001 1C1E  
                                     u2801 31AE                                       u4241 2A96  
                                     u4401 386A                                       u6010 1C3C  
                                     u4250 37CE                                       u4410 2D92  
                                     u2810 31DA                                       u6011 1C38  
                                     u4251 37CA                                       u4411 2D8E  
                                     u2811 31D6                                       u6020 1C84  
                                     u6100 15D0                                       u4260 37F0  
                                     u4420 2DE8                                       u2900 34A2  
                                     u2820 3210                                       u6021 1C80  
                                     u6101 15CC                                       u4261 37EC  
                                     u4421 2DE4                                       u2901 349E  
                                     u2821 320C                                       u6030 1CB4  
                                     u6110 1606                                       u4270 375C  
                                     u2910 34BC                                       u2830 3A34  
                                     u4430 36EA                                       u6031 1CB0  
                                     u6111 1602                                       u4271 3758  
                                     u2911 34B8                                       u2831 3A30  
                                     u4431 36E6                                       u6040 1CE2  
                                     u6200 188E                                       u6120 1616  
                                     u4600 26F8                                       u2840 326A  
                                     u2920 34D6                                       u4440 30DC  
                                     u6041 1CDE                                       u6201 188A  
                                     u6121 1612                                       u4601 26F4  
                                     u2841 3266                                       u2921 34D2  
                                     u4441 30D8                                       u6210 18D6  
                                     u6130 1790                                       u6050 154C  
                                     u4610 2758                                       u2850 3284  
                                     u2930 34F4                                       u4450 30F4  
                                     u6211 18D2                                       u6051 1548  
                                     u4611 2754                                       u2851 3280  
                                     u2931 34F0                                       u4451 30F0  
                                     u5500 1164                                       u6220 1904  
                                     u6140 17EA                                       u6060 155E  
                                     u6300 30A2                                       u4380 3BE8  
                                     u4620 3B80                                       u2860 32AA  
                                     u2940 350A                                       u4460 311E  
                                     u5501 1160                                       u6221 1900  
                                     u6141 17E6                                       u6061 155A  
                                     u6301 309E                                       u4381 3BE4  
                                     u4621 3B7C                                       u2861 32A6  
                                     u2941 3506                                       u4461 311A  
                                     u5510 1172                                       u5430 108C  
                                     u6230 193E                                       u6150 180A  
                                     u6070 156E                                       u6310 22AE  
                                     u4390 3C70                                       u4630 2B46  
                                     u2870 32C8                                       u2950 352E  
                                     u2790 31A0                                       u4470 3148  
                                     u5511 116E                                       u5431 1088  
                                     u6231 193A                                       u6151 1806  
                                     u6135 1786                                       u6071 156A  
                                     u6311 22AA                                       u4391 3C6C  
                                     u4631 2B42                                       u2871 32C4  
                                     u2951 352A                                       u2791 319C  
                                     u4471 3144                                       u5600 12B0  
                                     u5520 11E0                                       u5440 109E  
                                     u6160 181C                                       u6080 15AE  
                                     u6240 2FD4                                       u6400 243C  
                                     u6320 22BC                                       u4640 2BD4  
                                     u2880 32E4                                       u2960 366C  
                                     u4480 3172                                       u4800 3598  
                                     u5601 12AC                                       u5521 11DC  
                                     u5441 109A                                       u6161 1818  
                                     u6081 15AA                                       u6241 2FD0  
                                     u6401 2438                                       u6321 22B8  
                                     u4641 2BD0                                       u2881 32E0  
                                     u2961 3668                                       u4481 316E  
                                     u5610 12BE                                       u5530 11F8  
                                     u5450 10AE                                       u6170 184A  
                                     u6090 15C0                                       u6250 3008  
                                     u6330 2318                                       u6410 276E  
                                     u4650 2BF6                                       u4570 25FE  
                                     u2890 330A                                       u2970 36C2  
                                     u4810 35C4                                       u5611 12BA  
                                     u5531 11F2                                       u5451 10AA  
                                     u6171 1846                                       u6091 15BC  
                                     u6331 2314                                       u6411 276A  
                                     u4651 2BF2                                       u4571 25FA  
                                     u2891 3306                                       u2971 36BE  
                                     u5700 1408                                       u5620 12DC  
                                     u5540 11FA                                       u5460 10F0  
                                     u6180 1860                                       u6260 3036  
                                     u6340 236E                                       u6500 205C  
                                     u6420 28DE                                       u4660 2C1C  
                                     u4580 2640                                       u2980 3A50  
                                     u4820 35D4                                       u5701 1404  
                                     u5621 12D8                                       u5461 10EC  
                                     u6181 185C                                       u6261 3032  
                                     u6341 236A                                       u6501 2058  
                                     u6421 28DA                                       u4661 2C18  
                                     u4581 263C                                       u2981 3A4C  
                                     u4821 35D0                                       u5710 141A  
                                     u5630 1314                                       u5550 1222  
                                     u5470 1106                                       u6190 1874  
                                     u6270 304A                                       u6350 23B8  
                                     u6510 2188                                       u6430 28FE  
                                     u4670 2C3C                                       u2990 2EB6  
                                     u4590 26B2                                       u5711 1416  
                                     u5631 1310                                       u5551 121E  
                                     u5471 1102                                       u6191 1870  
                                     u6271 3046                                       u6255 2FFE  
                                     u6351 23B4                                       u6511 2184  
                                     u6431 28FA                                       u4671 2C38  
                                     u2991 2EB2                                       u4591 26AE  
                                     u4807 358E                                       u4680 3BB8  
                                     u5800 1502                                       u5720 1430  
                                     u5640 135A                                       u5560 1240  
                                     u5480 1118                                       u6280 3072  
                                     u6360 23D6                                       u6440 2922  
                                     u4840 3408                                       u6520 1DF8  
                                     u4681 3BB4                                       u5801 14FE  
                                     u5721 142C                                       u5641 1356  
                                     u5561 123C                                       u5481 1114  
                                     u6281 306E                                       u6361 23D2  
                                     u6441 291E                                       u4841 3404  
                                     u4817 35BA                                       u6521 1DF4  
                                     u4690 3C9C                                       u5810 151E  
                                     u5730 1446                                       u5650 1390  
                                     u5570 1260                                       u5490 1128  
                                     u6290 3092                                       u6370 23E6  
                                     u6450 2942                                       u4770 3972  
                                     u4850 348E                                       u6530 1E5C  
                                     u4691 3C98                                       u5811 151A  
                                     u5731 1442                                       u5651 138C  
                                     u5571 125C                                       u5491 1124  
                                     u6291 308E                                       u6371 23E2  
                                     u6451 293E                                       u4771 396E  
                                     u4851 348A                                       u6531 1E58  
                                     u5740 145A                                       u5660 13A0  
                                     u5580 126E                                       u5900 1AF4  
                                     u5820 1976                                       u6380 23F4  
                                     u6460 2960                                       u4860 3B08  
                                     u6540 1E72                                       u5741 1456  
                                     u5661 139C                                       u5581 126A  
                                     u5901 1AF0                                       u5821 1972  
                                     u6381 23F0                                       u6461 295C  
                                     u4861 3B04                                       u6541 1E6E  
                                     u5750 1474                                       u5670 13CC  
                                     u5590 127E                                       u5910 1B16  
                                     u5830 1988                                       u6390 242E  
                                     u6470 29A8                                       u4790 3552  
                                     u6550 1ED6                                       u5751 1470  
                                     u5671 13C8                                       u5591 127A  
                                     u5911 1B12                                       u5831 1984  
                                     u6391 242A                                       u6471 29A4  
                                     u6607 2DEE                                       u4791 354E  
                                     u6551 1ED2                                       u5760 14AE  
                                     u5680 13DC                                       u5920 1B40  
                                     u5840 1998                                       u6480 29C6  
                                     u6560 1EEC                                       u5761 14AA  
                                     u5681 13D8                                       u5921 1B3C  
                                     u5841 1994                                       u6481 29C2  
                                     u6617 2E0E                                       u6561 1EE8  
                                     u4890 3AC8                                       u5770 14C0  
                                     u5690 13F8                                       u5930 1B64  
                                     u5850 19DC                                       u6490 2038  
                                     u6570 1F50                                       u4891 3AC4  
                                     u5771 14BC                                       u5691 13F4  
                                     u5931 1B60                                       u5851 19D8  
                                     u6491 2034                                       u6627 2E2A  
                                     u6571 1F4C                                       u5780 14D0  
                                     u5940 1B7A                                       u5860 19EE  
                                     u6580 1F66                                       u5781 14CC  
                                     u5941 1B76                                       u5861 19EA  
                                     u6581 1F62                                       u5790 14F0  
                                     u5950 1B98                                       u5870 19FE  
                                     u6590 1FCA                                       u5791 14EC  
                                     u5951 1B94                                       u5871 19FA  
                                     u6591 1FC6                                       u5960 1BB8  
                                     u5880 1A3E                                       u5961 1BB4  
                                     u5881 1A3A                                       u5970 1BCA  
                                     u5890 1A7E                                       u5971 1BC6  
                                     u5891 1A7A                                       u5980 1BF8  
                                     u5981 1BF4                                       u5990 1C0E  
                                     u5991 1C0A                                       _TMR2 0FCC  
               ??_analog_pin_functionality 000D                      ?_send_4_bit_char_data 001B  
                     ??_send_4_bit_command 001E                                       abs@a 0013  
                                     _dbuf 0100                                       _main 1CF6  
                                     _dtoa 2450                                       _prec 0068  
                                     pad@i 0024                                       pad@p 0021  
                                     fsr1h 0FE2                                       fsr2h 0FDA  
                                     indf1 0FE7                                       indf2 0FDF  
                                     fsr1l 0FE1                                       pad@w 0026  
                                     fsr2l 0FD9                                       btemp 0073  
                                     prodh 0FF4                                       prodl 0FF3  
                __end_of_send_4_bit_enable 3914                                       start 000E  
                          ___fldiv@new_exp 0045                       _set_TIMER2_interrupt 3C5E  
               __end_of_interrupt_ccp1_cfg 3CC4                      _CCP_PWM_Set_Duty$2627 00E8  
                         __end_of_CCP_Init 2A08                         _adc_select_channel 3BA2  
                             ___param_bank 0000                                      ??_abs 0015  
                     _gpio_pin_write_logic 2EA0                                      ??_pad 0023  
                        ?_motor_move_right 0017                        ?_adc_select_channel 000D  
                    ?_lcd_4_bit_set_cursor 001F                              ___fltol@sign1 0065  
                          __end_of___fladd 1532                                      ?_main 0001  
                                    ?_dtoa 0028                   ??_application_initialize 0068  
                          __end_of___fldiv 1CF6                            __end_of___awdiv 331C  
                                    STR_10 1053                                      STR_11 1039  
                                    STR_12 1010                                      STR_13 1039  
                                    STR_14 101E                            __end_of___awmod 3540  
                       ??_motor_move_right 0019                            __end_of___flmul 195C  
                          __end_of___fltol 30C4                            ___awdiv@divisor 000F  
                                    i2l309 3C34                             _TIMER2_HUNDLER 00D2  
                                    i2l535 39DE                                      i2l297 33DE  
                                    i2l658 3CD8                            ___awdiv@counter 0011  
                             vfpfcnvrt@fmt 0037                                      _PORTA 0F80  
                                    _PORTB 0F81                                      _PORTC 0F82  
                                    _PORTD 0F83                                      _PORTE 0F84  
                                    _TRISA 0F92                                      _TRISB 0F93  
                                    _TRISC 0F94                                      _TRISD 0F95  
                                    _TRISE 0F96                     adc_startconversion@ret 000F  
                                    _adc_0 00AB                                      _flags 0070  
                                    _fputc 318E                                      _fputs 39F2  
                                    _motor 00B9                                      pad@fp 001D  
                                    _width 00D0                                      _putch 3CE8  
                                    dtoa@d 002A                                      dtoa@i 0032  
                                    dtoa@p 002E                                      dtoa@s 0034  
                                    dtoa@w 0030                                      pclath 0FFA  
                         fp__adc_interrupt 0000                                      pclatu 0FFB  
                      _adc_startconversion 3C86                                      tablat 0FF5  
                     ??_adc_select_channel 0010                    __end_of_send_4_bit_help 365E  
                                    ttemp5 0074                                      ttemp6 0077  
                                    ttemp7 007B                                      status 0FD8  
                                    wtemp8 0074                            __end_of_sprintf 3960  
                    ?_set_TIMER2_interrupt 000D                            __initialization 3878  
                             __end_of_main 2020                               __end_of_dtoa 25E4  
                    ?_gpio_pin_write_logic 000D                       ?_adc_startconversion 000D  
                                ??_ADC_ISR 0009                                     ??_main 0068  
                                   ??_dtoa 002C                              __activetblptr 0003  
         send_4_bit_string_data_pos@column 0027               adc_startconversion@adc_confg 000D  
                 _adc_getconversion_result 331C                                     ?_fputc 000D  
                                   ?_fputs 0016                                     _ADRESH 0FC4  
                                   _ADRESL 0FC3                                     _CCPR1L 0FBE  
                                   _CCPR2L 0FBB                           ___awdiv@dividend 000D  
                                   ?_putch 0001                     _cnvert_uint8_to_string 33E0  
                   ??_send_4_bit_char_data 001E                           __end_of_adc_init 2C5C  
                                   i2l4211 3332                                     i2l4221 33A8  
                                   i2l4213 3344                                     i2l5013 39BE  
                                   i2l4215 334C                                     i2l4207 331C  
                                   i2l5015 39CC                                     i2l4217 3366  
                                   i2l4225 33DC                                     i2l4209 3320  
                                   i2l5017 39DA                                     i2l4219 338E  
                                   i2l4651 3C08                                     i2l4653 3C0A  
                                   i2l4655 3C1C                                     i2l4585 3CC4  
                                   i2l4587 3CC4                           __end_of___xxtofl 2450  
                    send_4_bit_command@lcd 001B                      send_4_bit_command@ret 001E  
                            ??_Timer2_init 0012                      adc_select_channel@ret 0011  
                             vfprintf@cfmt 0049                                  ??___fladd 0055  
                                ??___fldiv 003C                                  ??___awdiv 0011  
                                ??___awmod 0011                                  ??___flmul 0023  
                                ??___fltol 0061                      ??_adc_startconversion 000F  
                            _adc_interrupt 3CC4                     ??_lcd_4_bit_set_cursor 0023  
                                   _memset 25E4                                     clear_0 389E  
                                   clear_1 38AA                                     clear_2 38B6  
                         ___awdiv@quotient 0013                            ___awmod@divisor 000F  
                                   isa$std 0001                            ___awmod@counter 0011  
                                   pad@buf 001F                adc_getconversion_result@ret 0008  
                                   dtoa@fp 0028                                     fputc@c 000D  
        adc_getconversion_result@adc_confg 0001                                     fputs@c 001A  
                                   fputs@i 001B                                     fputs@s 0016  
                             __mediumconst 0000                                     tblptrh 0FF7  
                                   tblptrl 0FF6                                     tblptru 0FF8  
                                   putch@c 0001                           __end_of_vfprintf 3878  
                                ?_CCP_Init 00EE                     _prescaler_timer_status 3BD6  
                                ??_sprintf 0051                    CCP_PWM_Set_Duty@ccp_obj 00E2  
         __end_of_analog_pin_functionality 3CE8                               ___xxtofl@arg 0017  
                             ___xxtofl@exp 0016                               ___xxtofl@val 000D  
                               __accesstop 0080                    __end_of__initialization 38BC  
                         ?_send_4_bit_help 0017                           _CCP_PWM_Set_Duty 2020  
                   ??_set_TIMER2_interrupt 000F                              ___rparam_used 0001  
                  CCP_PWM_Set_Duty@val_reg 00EC                                 ___fltol@f1 005D  
                    set_pwm_period@ccp_obj 00E2                 set_TIMER2_interrupt@timer2 000D  
                   ??_gpio_pin_write_logic 0010                    ??_lcd_pins_4_initialize 0021  
                           __pcstackCOMRAM 0001                   lcd_pins_4_initialize@lcd 001F  
                 lcd_pins_4_initialize@ret 0023                               __pidataBANK0 3B32  
                           ?_adc_interrupt 0001                              __end_of_fputc 3258  
                            __end_of_fputs 3A36                ?_send_4_bit_string_data_pos 0024  
                            __end_of_putch 3CEA                        __end_of_Timer2_init 39AC  
                               ??_CCP_Init 0067                                    ??_fputc 0011  
                                  ??_fputs 001A                                    ??_putch 000D  
                               __pbssBANK0 00BB                                 __pbssBANK1 0100  
                   _application_initialize 3A76                adc_select_channel@adc_confg 000D  
                      CCP_PWM_Set_Duty@ret 00E7               prescaler_timer_status@timer2 000D  
                         _lm35_res_celsius 006A                                    _ADC_ISR 3C08  
                                  ?_memset 000D                                  ?_adc_init 0016  
                       _interrupt_ccp1_cfg 3CAA                    send_4_bit_char_data@lcd 001B  
                  send_4_bit_char_data@ret 001E  adc_getconversion_result@conversion_result 0003  
                                ?___xxtofl 000D             gpio_pin_write_logic@Pin_Config 000D  
                      _set_pwm_period$2625 00E6                        _set_pwm_period$2626 00EA  
                      ?_interrupt_ccp1_cfg 000D                                    __Hparam 0000  
             lcd_pins_4_initialize@cnt_pin 0024                               _handler_cpp1 006C  
                             _handler_cpp2 00D4                                    __Lparam 0000  
                          ??_adc_interrupt 0009                                _Timer2_init 3960  
                     ??_interrupt_ccp1_cfg 000F                                    ___fladd 1072  
                                  ___fldiv 195C                                    ___awdiv 3258  
                                  ___awmod 3490                                    ___flmul 1532  
                                  ___fltol 2FBE                                  ?_vfprintf 0043  
                             __psmallconst 1000                 ??_adc_getconversion_result 0005  
                ?_analog_pin_functionality 0001                 __end_of_gpio_pin_intialize 3828  
                                  __pcinit 3878                                    __ramtop 1000  
                               ??_adc_init 0018                                    __ptext0 1CF6  
                                  __ptext1 3540                                    __ptext2 36D8  
                                  __ptext3 30C4                                    __ptext4 3AF6  
                                  __ptext5 33E0                                    __ptext6 3914  
                                  __ptext7 3828                                    __ptext8 2A08  
                                  __ptext9 2450                                    _arr_val 00DC  
                                  _lat_reg 008A                          adc_init@adc_confg 0016  
                                _T2CONbits 0FCA                                 ??___xxtofl 0011  
                         ___awmod@dividend 000D                    ?_cnvert_uint8_to_string 005F  
                                  _sprintf 3914                             __pintcode_body 39AC  
                     end_of_initialization 38BC                                    fputc@fp 000F  
                                  memset@c 000F                                    memset@k 0015  
                                  memset@n 0011                                    memset@s 0017  
                                  int_func 39AC                                    fputs@fp 0018  
                    gpio_pin_intialize@ret 001A                          __end_of_vfpfcnvrt 2B34  
                                  postdec1 0FE5                                    postdec2 0FDD  
                               _timer2_obj 00D6                                    postinc0 0FEE  
                                  postinc1 0FE6                                    postinc2 0FDE  
                         vfpfcnvrt@convarg 003D                                 ??_vfprintf 0049  
         ADC_StartConversion_Interrupt@ret 0015                   __end_of_CCP_PWM_Set_Duty 229C  
                         _InterruptManager 0008             __end_of_cnvert_uint8_to_string 3490  
                              ___fladd@grs 005C                    ?_prescaler_timer_status 000D  
     __end_of_gpio_pin_direction_intialize 2D80               _gpio_pin_direction_intialize 2C5C  
                            ___xxtofl@sign 0015                                ___fldiv@grs 0047  
                              ___fldiv@rem 0040                                ___flmul@grs 0029  
                              _CCP1CONbits 0FBD                                _CCP2CONbits 0FBA  
                         _motor_initialize 3B6E                __end_of_adc_startconversion 3CAA  
analog_pin_functionality@pin_functionality 000D             send_4_bit_string_data_pos@data 0028  
            __end_of_lcd_pins_4_initialize 2EA0                                vfpfcnvrt@ap 0039  
                              vfpfcnvrt@cp 0041                                vfpfcnvrt@fp 0035  
                           __end_of_memset 275A             __end_of_prescaler_timer_status 3C08  
                      start_initialization 3878                                __end_of_abs 3A76  
                              __end_of_pad 36D8              ?_gpio_pin_direction_intialize 000D  
             gpio_pin_intialize@Pin_Config 0017                       send_4_bit_enable@lcd 0017  
                     send_4_bit_enable@ret 0019                             _set_pwm_period 275A  
                  ?_application_initialize 0001                           _motor_move_right 3AF6  
     ADC_StartConversion_Interrupt@channel 0014                                vfprintf@fmt 0045  
         __end_of_adc_getconversion_result 33E0                                __pdataBANK0 0080  
                                 ?_ADC_ISR 0001                                   ??_memset 0013  
             cnvert_uint16_to_string@F3221 00C6               cnvert_uint32_to_string@F3228 00BB  
                               memset@dest 000D          cnvert_uint8_to_string@DataCounter 0066  
                                ___fladd@a 0051                                  ___fladd@b 004D  
                                ___fldiv@a 0038                                  ___fldiv@b 0034  
                                ___flmul@a 001F                                  ___flmul@b 001B  
                              __pbssCOMRAM 0068                              __pcstackBANK0 00E2  
                   __end_of_set_pwm_period 28CA             __end_of_application_initialize 3AB6  
                              _ccp_pwm_obj 009E     gpio_pin_direction_intialize@Pin_Config 000D  
                       send_4_bit_help@lcd 0017                         send_4_bit_help@ret 001A  
                send_4_bit_command@command 001D            gpio_pin_direction_intialize@ret 0015  
                     CCP_PWM_Set_Duty@duty 00E4                                  _dtoa$2255 002C  
                             ?_Timer2_init 0010                                  __pintcode 0008  
                                 ?___fladd 004D                                   ?___fldiv 0034  
                                 ?___awdiv 000D                                   ?___awmod 000D  
                                 ?___flmul 001B                                   ?___fltol 005D  
                cnvert_uint8_to_string@str 005F                  gpio_pin_write_logic@logic 000F  
                              __smallconst 1000                send_4_bit_help@data_command 0019  
                          ?_set_pwm_period 00E2                                   _CCP_Init 28CA  
                                 ?_sprintf 004B                         _gpio_pin_intialize 37BC  
                 send_4_bit_char_data@data 001D                 __end_of_send_4_bit_command 37BC  
           ??_gpio_pin_direction_intialize 000F                        ?_gpio_pin_intialize 0017  
                 __end_of_InterruptManager 39F2                                   _PIE1bits 0F9D  
                                 _PIE2bits 0FA0                                   i2u432_40 3332  
                                 i2u432_41 332E                                   i2u433_40 3344  
                                 i2u433_41 3340                                   _PIR1bits 0F9E  
                                 i2u434_40 3366                                   i2u434_41 3362  
                                 i2u435_40 33A8                                   i2u435_41 33A4  
                                 _PIR2bits 0FA1                                   i2u436_45 33C0  
                                 i2u533_40 39CC                                   i2u533_41 39C8  
                                 i2u534_40 39DA                                   i2u534_41 39D6  
                                 i2u487_40 3C1C                                   i2u487_41 3C18  
                                 i2u488_48 3C22                                   i2u488_49 3C34  
          ??_ADC_StartConversion_Interrupt 0015                      __end_of_adc_interrupt 3CDA  
                                _vfpfcnvrt 2A08                                 _ADCON0bits 0FC2  
                               _ADCON1bits 0FC1                                 _ADCON2bits 0FC0  
                     ??_gpio_pin_intialize 0019                          ??_send_4_bit_help 001A  
                        ?_CCP_PWM_Set_Duty 00E2                   __end_of_motor_initialize 3BA2  
                       ??_CCP_PWM_Set_Duty 00E5                          _set_adc_interrupt 3C36  
                          CCP_Init@ccp_obj 00EE              send_4_bit_string_data_pos@lcd 0024  
            send_4_bit_string_data_pos@row 0026                    gpio_pin_write_logic@ret 0016  
                       ?_set_adc_interrupt 000D                 __end_of_adc_select_channel 3BD6  
                                copy_data0 388C                          Timer2_init@timer2 0010  
                ?_adc_getconversion_result 0001                        ??_set_adc_interrupt 000F  
                adc_select_channel@channel 000F                                   __Hrparam 0000  
                               vfprintf@ap 0047                                   __Lrparam 0000  
                               vfprintf@fp 0043                   _analog_pin_functionality 3CDA  
                interrupt_ccp1_cfg@ccp_obj 000D                   __end_of_motor_move_right 3B32  
                                 _lm35_res 0071                                 ?_vfpfcnvrt 0035  
             ??_send_4_bit_string_data_pos 002A               __end_of_send_4_bit_char_data 374A  
                                 _adc_init 2B34                  __end_of_set_adc_interrupt 3C5E  
                               sprintf@fmt 004D                                   ___xxtofl 229C  
                                 _lcd_4bit 00B3                                   __ptext10 365E  
                                 __ptext11 39F2                                   __ptext20 2D80  
                                 __ptext12 318E                                   __ptext21 374A  
                                 __ptext13 3CE8                                   __ptext30 3C5E  
                                 __ptext22 35D6                                   __ptext14 3A36  
                                 __ptext31 3BD6                                   __ptext23 38C6  
                                 __ptext15 3490                                   __ptext40 195C  
                                 __ptext32 28CA                                   __ptext24 37BC  
                                 __ptext16 3258                                   __ptext41 1072  
                                 __ptext33 275A                                   __ptext25 2EA0  
                                 __ptext17 25E4                                   __ptext42 3AB6  
                                 __ptext34 3CAA                                   __ptext26 2B34  
                                 __ptext18 3A76                                   __ptext43 3C86  
                                 __ptext35 2C5C                                   __ptext27 3C36  
                                 __ptext19 3B6E                                   __ptext44 3BA2  
                                 __ptext36 2020                                   __ptext28 3CDA  
                                 __ptext37 229C                                   __ptext29 3960  
                                 __ptext46 3C08                                   __ptext38 2FBE  
                                 __ptext47 3CC4                                   __ptext39 1532  
                                 __ptext48 331C                                   __ptext49 0000  
             __end_of_lcd_4_bit_set_cursor 318E                cnvert_uint8_to_string@F3214 00CC  
                              _hundler_ADC 006E                                   isa$xinst 0000  
                                 int$flags 0073                                   _port_reg 0080  
                                 _vfprintf 3828                cnvert_uint8_to_string@value 0065  
                                 _tris_reg 0094                      _lcd_pins_4_initialize 2D80  
    __end_of_ADC_StartConversion_Interrupt 3AF6              _ADC_StartConversion_Interrupt 3AB6  
             __end_of_set_TIMER2_interrupt 3C86                      motor_initialize@motor 001B  
                  lcd_4_bit_set_cursor@lcd 001F                    lcd_4_bit_set_cursor@ret 0023  
                  lcd_4_bit_set_cursor@row 0021                                 _INTCONbits 0FF2  
             __end_of_gpio_pin_write_logic 2FBE                                   intlevel2 0000  
               lcd_4_bit_set_cursor@column 0022                                  sprintf@ap 0051  
               set_adc_interrupt@adc_confg 000D          cnvert_uint8_to_string@Temp_String 0061  
   ADC_StartConversion_Interrupt@adc_confg 0012                   ??_cnvert_uint8_to_string 0061  
                              ??_vfpfcnvrt 003B                           ??_set_pwm_period 00E4  
                                 sprintf@f 0053                                   sprintf@s 004B  
                    motor_move_right@motor 0017                              ___fladd@signs 0059  
                             ___fladd@aexp 005A                               ___fladd@bexp 005B  
                     _send_4_bit_char_data 36D8                          ?_InterruptManager 0001  
                        _send_4_bit_enable 38C6                            _send_4_bit_help 35D6  
